
a.out:     file format elf32-littleriscv


Disassembly of section .all:

80000000 <_boot>:
80000000:	00001297          	auipc	x5,0x1
80000004:	e1c28293          	addi	x5,x5,-484 # 80000e1c <__trap_handler>
80000008:	30529073          	csrrw	x0,mtvec,x5
8000000c:	00020117          	auipc	x2,0x20
80000010:	ff010113          	addi	x2,x2,-16 # 8001fffc <_stack_top>
80000014:	650000ef          	jal	x1,80000664 <main>

80000018 <_boot_end>:
80000018:	10500073          	wfi
8000001c:	ffdff06f          	jal	x0,80000018 <_boot_end>

80000020 <prand>:
80000020:	ff010113          	addi	x2,x2,-16
80000024:	00812623          	sw	x8,12(x2)
80000028:	01010413          	addi	x8,x2,16
8000002c:	8000a7b7          	lui	x15,0x8000a
80000030:	5487a783          	lw	x15,1352(x15) # 8000a548 <_stack_top+0xfffea54c>
80000034:	0027d713          	srli	x14,x15,0x2
80000038:	8000a7b7          	lui	x15,0x8000a
8000003c:	5487a783          	lw	x15,1352(x15) # 8000a548 <_stack_top+0xfffea54c>
80000040:	00f74733          	xor	x14,x14,x15
80000044:	8000a7b7          	lui	x15,0x8000a
80000048:	5487a783          	lw	x15,1352(x15) # 8000a548 <_stack_top+0xfffea54c>
8000004c:	0037d793          	srli	x15,x15,0x3
80000050:	00f74733          	xor	x14,x14,x15
80000054:	8000a7b7          	lui	x15,0x8000a
80000058:	5487a783          	lw	x15,1352(x15) # 8000a548 <_stack_top+0xfffea54c>
8000005c:	0057d793          	srli	x15,x15,0x5
80000060:	00f747b3          	xor	x15,x14,x15
80000064:	0017f713          	andi	x14,x15,1
80000068:	8000a7b7          	lui	x15,0x8000a
8000006c:	56e7a623          	sw	x14,1388(x15) # 8000a56c <_stack_top+0xfffea570>
80000070:	8000a7b7          	lui	x15,0x8000a
80000074:	5487a783          	lw	x15,1352(x15) # 8000a548 <_stack_top+0xfffea54c>
80000078:	0017d713          	srli	x14,x15,0x1
8000007c:	8000a7b7          	lui	x15,0x8000a
80000080:	56c7a783          	lw	x15,1388(x15) # 8000a56c <_stack_top+0xfffea570>
80000084:	00f79793          	slli	x15,x15,0xf
80000088:	00f76733          	or	x14,x14,x15
8000008c:	8000a7b7          	lui	x15,0x8000a
80000090:	54e7a423          	sw	x14,1352(x15) # 8000a548 <_stack_top+0xfffea54c>
80000094:	8000a7b7          	lui	x15,0x8000a
80000098:	5487a783          	lw	x15,1352(x15) # 8000a548 <_stack_top+0xfffea54c>
8000009c:	00078513          	addi	x10,x15,0
800000a0:	00c12403          	lw	x8,12(x2)
800000a4:	01010113          	addi	x2,x2,16
800000a8:	00008067          	jalr	x0,0(x1)

800000ac <enable_interrupts>:
800000ac:	ff010113          	addi	x2,x2,-16
800000b0:	00812623          	sw	x8,12(x2)
800000b4:	01010413          	addi	x8,x2,16
800000b8:	00800293          	addi	x5,x0,8
800000bc:	3002a073          	csrrs	x0,mstatus,x5
800000c0:	000012b7          	lui	x5,0x1
800000c4:	80028293          	addi	x5,x5,-2048 # 800 <_boot-0x7ffff800>
800000c8:	3042a073          	csrrs	x0,mie,x5
800000cc:	00000013          	addi	x0,x0,0
800000d0:	00c12403          	lw	x8,12(x2)
800000d4:	01010113          	addi	x2,x2,16
800000d8:	00008067          	jalr	x0,0(x1)

800000dc <get_pixel>:
800000dc:	fd010113          	addi	x2,x2,-48
800000e0:	02812623          	sw	x8,44(x2)
800000e4:	03010413          	addi	x8,x2,48
800000e8:	fca42e23          	sw	x10,-36(x8)
800000ec:	fcb42c23          	sw	x11,-40(x8)
800000f0:	fcc42a23          	sw	x12,-44(x8)
800000f4:	fd842783          	lw	x15,-40(x8)
800000f8:	41f7d713          	srai	x14,x15,0x1f
800000fc:	00777713          	andi	x14,x14,7
80000100:	00f707b3          	add	x15,x14,x15
80000104:	4037d793          	srai	x15,x15,0x3
80000108:	00078693          	addi	x13,x15,0
8000010c:	fd442703          	lw	x14,-44(x8)
80000110:	00070793          	addi	x15,x14,0
80000114:	00279793          	slli	x15,x15,0x2
80000118:	00e787b3          	add	x15,x15,x14
8000011c:	00479793          	slli	x15,x15,0x4
80000120:	00f687b3          	add	x15,x13,x15
80000124:	ffc7f793          	andi	x15,x15,-4
80000128:	fdc42703          	lw	x14,-36(x8)
8000012c:	00f707b3          	add	x15,x14,x15
80000130:	fef42623          	sw	x15,-20(x8)
80000134:	fd842783          	lw	x15,-40(x8)
80000138:	fff7c793          	xori	x15,x15,-1
8000013c:	01f7f793          	andi	x15,x15,31
80000140:	fef42423          	sw	x15,-24(x8)
80000144:	fec42783          	lw	x15,-20(x8)
80000148:	0007a783          	lw	x15,0(x15)
8000014c:	fef42223          	sw	x15,-28(x8)
80000150:	fe842783          	lw	x15,-24(x8)
80000154:	00100713          	addi	x14,x0,1
80000158:	00f717b3          	sll	x15,x14,x15
8000015c:	00078713          	addi	x14,x15,0
80000160:	fe442783          	lw	x15,-28(x8)
80000164:	00f777b3          	and	x15,x14,x15
80000168:	00f037b3          	sltu	x15,x0,x15
8000016c:	0ff7f793          	andi	x15,x15,255
80000170:	00078513          	addi	x10,x15,0
80000174:	02c12403          	lw	x8,44(x2)
80000178:	03010113          	addi	x2,x2,48
8000017c:	00008067          	jalr	x0,0(x1)

80000180 <set_pixel>:
80000180:	fd010113          	addi	x2,x2,-48
80000184:	02812623          	sw	x8,44(x2)
80000188:	03010413          	addi	x8,x2,48
8000018c:	fca42e23          	sw	x10,-36(x8)
80000190:	fcb42c23          	sw	x11,-40(x8)
80000194:	fcc42a23          	sw	x12,-44(x8)
80000198:	fcd42823          	sw	x13,-48(x8)
8000019c:	fd842783          	lw	x15,-40(x8)
800001a0:	0037d693          	srli	x13,x15,0x3
800001a4:	fd442703          	lw	x14,-44(x8)
800001a8:	00070793          	addi	x15,x14,0
800001ac:	00279793          	slli	x15,x15,0x2
800001b0:	00e787b3          	add	x15,x15,x14
800001b4:	00479793          	slli	x15,x15,0x4
800001b8:	00f687b3          	add	x15,x13,x15
800001bc:	ffc7f793          	andi	x15,x15,-4
800001c0:	fdc42703          	lw	x14,-36(x8)
800001c4:	00f707b3          	add	x15,x14,x15
800001c8:	fef42423          	sw	x15,-24(x8)
800001cc:	fd842783          	lw	x15,-40(x8)
800001d0:	fff7c793          	xori	x15,x15,-1
800001d4:	01f7f793          	andi	x15,x15,31
800001d8:	fef42223          	sw	x15,-28(x8)
800001dc:	fe842783          	lw	x15,-24(x8)
800001e0:	0007a783          	lw	x15,0(x15)
800001e4:	fef42623          	sw	x15,-20(x8)
800001e8:	fd042783          	lw	x15,-48(x8)
800001ec:	02078263          	beq	x15,x0,80000210 <set_pixel+0x90>
800001f0:	fe442783          	lw	x15,-28(x8)
800001f4:	00100713          	addi	x14,x0,1
800001f8:	00f717b3          	sll	x15,x14,x15
800001fc:	00078713          	addi	x14,x15,0
80000200:	fec42783          	lw	x15,-20(x8)
80000204:	00e7e7b3          	or	x15,x15,x14
80000208:	fef42623          	sw	x15,-20(x8)
8000020c:	0240006f          	jal	x0,80000230 <set_pixel+0xb0>
80000210:	fe442783          	lw	x15,-28(x8)
80000214:	00100713          	addi	x14,x0,1
80000218:	00f717b3          	sll	x15,x14,x15
8000021c:	fff7c793          	xori	x15,x15,-1
80000220:	00078713          	addi	x14,x15,0
80000224:	fec42783          	lw	x15,-20(x8)
80000228:	00e7f7b3          	and	x15,x15,x14
8000022c:	fef42623          	sw	x15,-20(x8)
80000230:	fe842783          	lw	x15,-24(x8)
80000234:	fec42703          	lw	x14,-20(x8)
80000238:	00e7a023          	sw	x14,0(x15)
8000023c:	00000013          	addi	x0,x0,0
80000240:	02c12403          	lw	x8,44(x2)
80000244:	03010113          	addi	x2,x2,48
80000248:	00008067          	jalr	x0,0(x1)

8000024c <skullcopy>:
8000024c:	fd010113          	addi	x2,x2,-48
80000250:	02812623          	sw	x8,44(x2)
80000254:	03010413          	addi	x8,x2,48
80000258:	fca42e23          	sw	x10,-36(x8)
8000025c:	000097b7          	lui	x15,0x9
80000260:	60078793          	addi	x15,x15,1536 # 9600 <_boot-0x7fff6a00>
80000264:	fef42423          	sw	x15,-24(x8)
80000268:	fe042623          	sw	x0,-20(x8)
8000026c:	0400006f          	jal	x0,800002ac <skullcopy+0x60>
80000270:	fec42783          	lw	x15,-20(x8)
80000274:	0027d793          	srli	x15,x15,0x2
80000278:	fdc42683          	lw	x13,-36(x8)
8000027c:	fec42703          	lw	x14,-20(x8)
80000280:	00e68733          	add	x14,x13,x14
80000284:	00070693          	addi	x13,x14,0
80000288:	80001737          	lui	x14,0x80001
8000028c:	f4870713          	addi	x14,x14,-184 # 80000f48 <_stack_top+0xfffe0f4c>
80000290:	00279793          	slli	x15,x15,0x2
80000294:	00f707b3          	add	x15,x14,x15
80000298:	0007a783          	lw	x15,0(x15)
8000029c:	00f6a023          	sw	x15,0(x13)
800002a0:	fec42783          	lw	x15,-20(x8)
800002a4:	00478793          	addi	x15,x15,4
800002a8:	fef42623          	sw	x15,-20(x8)
800002ac:	fec42703          	lw	x14,-20(x8)
800002b0:	fe842783          	lw	x15,-24(x8)
800002b4:	faf76ee3          	bltu	x14,x15,80000270 <skullcopy+0x24>
800002b8:	00000013          	addi	x0,x0,0
800002bc:	00000013          	addi	x0,x0,0
800002c0:	02c12403          	lw	x8,44(x2)
800002c4:	03010113          	addi	x2,x2,48
800002c8:	00008067          	jalr	x0,0(x1)

800002cc <vramcpy>:
800002cc:	fe010113          	addi	x2,x2,-32
800002d0:	00812e23          	sw	x8,28(x2)
800002d4:	02010413          	addi	x8,x2,32
800002d8:	000097b7          	lui	x15,0x9
800002dc:	60078793          	addi	x15,x15,1536 # 9600 <_boot-0x7fff6a00>
800002e0:	fef42423          	sw	x15,-24(x8)
800002e4:	fe042623          	sw	x0,-20(x8)
800002e8:	0400006f          	jal	x0,80000328 <vramcpy+0x5c>
800002ec:	8000a7b7          	lui	x15,0x8000a
800002f0:	5547a703          	lw	x14,1364(x15) # 8000a554 <_stack_top+0xfffea558>
800002f4:	fec42783          	lw	x15,-20(x8)
800002f8:	00f707b3          	add	x15,x14,x15
800002fc:	00078693          	addi	x13,x15,0
80000300:	8000a7b7          	lui	x15,0x8000a
80000304:	5507a703          	lw	x14,1360(x15) # 8000a550 <_stack_top+0xfffea554>
80000308:	fec42783          	lw	x15,-20(x8)
8000030c:	00f707b3          	add	x15,x14,x15
80000310:	00078713          	addi	x14,x15,0
80000314:	0006a783          	lw	x15,0(x13)
80000318:	00f72023          	sw	x15,0(x14)
8000031c:	fec42783          	lw	x15,-20(x8)
80000320:	00478793          	addi	x15,x15,4
80000324:	fef42623          	sw	x15,-20(x8)
80000328:	fec42703          	lw	x14,-20(x8)
8000032c:	fe842783          	lw	x15,-24(x8)
80000330:	faf76ee3          	bltu	x14,x15,800002ec <vramcpy+0x20>
80000334:	00000013          	addi	x0,x0,0
80000338:	00000013          	addi	x0,x0,0
8000033c:	01c12403          	lw	x8,28(x2)
80000340:	02010113          	addi	x2,x2,32
80000344:	00008067          	jalr	x0,0(x1)

80000348 <draw_ball>:
80000348:	fc010113          	addi	x2,x2,-64
8000034c:	02112e23          	sw	x1,60(x2)
80000350:	02812c23          	sw	x8,56(x2)
80000354:	02912a23          	sw	x9,52(x2)
80000358:	03212823          	sw	x18,48(x2)
8000035c:	03312623          	sw	x19,44(x2)
80000360:	04010413          	addi	x8,x2,64
80000364:	fca42623          	sw	x10,-52(x8)
80000368:	fcc42783          	lw	x15,-52(x8)
8000036c:	20079063          	bne	x15,x0,8000056c <draw_ball+0x224>
80000370:	fc042e23          	sw	x0,-36(x8)
80000374:	0c00006f          	jal	x0,80000434 <draw_ball+0xec>
80000378:	fc042c23          	sw	x0,-40(x8)
8000037c:	09c0006f          	jal	x0,80000418 <draw_ball+0xd0>
80000380:	8000a7b7          	lui	x15,0x8000a
80000384:	5547a483          	lw	x9,1364(x15) # 8000a554 <_stack_top+0xfffea558>
80000388:	8000a7b7          	lui	x15,0x8000a
8000038c:	5587a783          	lw	x15,1368(x15) # 8000a558 <_stack_top+0xfffea55c>
80000390:	00078713          	addi	x14,x15,0
80000394:	fdc42783          	lw	x15,-36(x8)
80000398:	00f70933          	add	x18,x14,x15
8000039c:	8000a7b7          	lui	x15,0x8000a
800003a0:	55c7a783          	lw	x15,1372(x15) # 8000a55c <_stack_top+0xfffea560>
800003a4:	00078713          	addi	x14,x15,0
800003a8:	fd842783          	lw	x15,-40(x8)
800003ac:	00f709b3          	add	x19,x14,x15
800003b0:	8000a7b7          	lui	x15,0x8000a
800003b4:	5547a703          	lw	x14,1364(x15) # 8000a554 <_stack_top+0xfffea558>
800003b8:	8000a7b7          	lui	x15,0x8000a
800003bc:	5587a783          	lw	x15,1368(x15) # 8000a558 <_stack_top+0xfffea55c>
800003c0:	00078693          	addi	x13,x15,0
800003c4:	fdc42783          	lw	x15,-36(x8)
800003c8:	00f687b3          	add	x15,x13,x15
800003cc:	00078593          	addi	x11,x15,0
800003d0:	8000a7b7          	lui	x15,0x8000a
800003d4:	55c7a783          	lw	x15,1372(x15) # 8000a55c <_stack_top+0xfffea560>
800003d8:	00078693          	addi	x13,x15,0
800003dc:	fd842783          	lw	x15,-40(x8)
800003e0:	00f687b3          	add	x15,x13,x15
800003e4:	00078613          	addi	x12,x15,0
800003e8:	00070513          	addi	x10,x14,0
800003ec:	cf1ff0ef          	jal	x1,800000dc <get_pixel>
800003f0:	00050793          	addi	x15,x10,0
800003f4:	0017c793          	xori	x15,x15,1
800003f8:	00078693          	addi	x13,x15,0
800003fc:	00098613          	addi	x12,x19,0
80000400:	00090593          	addi	x11,x18,0
80000404:	00048513          	addi	x10,x9,0
80000408:	d79ff0ef          	jal	x1,80000180 <set_pixel>
8000040c:	fd842783          	lw	x15,-40(x8)
80000410:	00178793          	addi	x15,x15,1
80000414:	fcf42c23          	sw	x15,-40(x8)
80000418:	8000a7b7          	lui	x15,0x8000a
8000041c:	5687a783          	lw	x15,1384(x15) # 8000a568 <_stack_top+0xfffea56c>
80000420:	fd842703          	lw	x14,-40(x8)
80000424:	f4f76ee3          	bltu	x14,x15,80000380 <draw_ball+0x38>
80000428:	fdc42783          	lw	x15,-36(x8)
8000042c:	00178793          	addi	x15,x15,1
80000430:	fcf42e23          	sw	x15,-36(x8)
80000434:	8000a7b7          	lui	x15,0x8000a
80000438:	5687a783          	lw	x15,1384(x15) # 8000a568 <_stack_top+0xfffea56c>
8000043c:	fdc42703          	lw	x14,-36(x8)
80000440:	f2f76ce3          	bltu	x14,x15,80000378 <draw_ball+0x30>
80000444:	8000a7b7          	lui	x15,0x8000a
80000448:	5587a703          	lw	x14,1368(x15) # 8000a558 <_stack_top+0xfffea55c>
8000044c:	8000a7b7          	lui	x15,0x8000a
80000450:	5607a783          	lw	x15,1376(x15) # 8000a560 <_stack_top+0xfffea564>
80000454:	00f70733          	add	x14,x14,x15
80000458:	8000a7b7          	lui	x15,0x8000a
8000045c:	54e7ac23          	sw	x14,1368(x15) # 8000a558 <_stack_top+0xfffea55c>
80000460:	8000a7b7          	lui	x15,0x8000a
80000464:	55c7a703          	lw	x14,1372(x15) # 8000a55c <_stack_top+0xfffea560>
80000468:	8000a7b7          	lui	x15,0x8000a
8000046c:	5647a783          	lw	x15,1380(x15) # 8000a564 <_stack_top+0xfffea568>
80000470:	00f70733          	add	x14,x14,x15
80000474:	8000a7b7          	lui	x15,0x8000a
80000478:	54e7ae23          	sw	x14,1372(x15) # 8000a55c <_stack_top+0xfffea560>
8000047c:	8000a7b7          	lui	x15,0x8000a
80000480:	5587a783          	lw	x15,1368(x15) # 8000a558 <_stack_top+0xfffea55c>
80000484:	00078713          	addi	x14,x15,0
80000488:	8000a7b7          	lui	x15,0x8000a
8000048c:	5687a783          	lw	x15,1384(x15) # 8000a568 <_stack_top+0xfffea56c>
80000490:	00f70733          	add	x14,x14,x15
80000494:	27f00793          	addi	x15,x0,639
80000498:	02e7fa63          	bgeu	x15,x14,800004cc <draw_ball+0x184>
8000049c:	8000a7b7          	lui	x15,0x8000a
800004a0:	5687a783          	lw	x15,1384(x15) # 8000a568 <_stack_top+0xfffea56c>
800004a4:	28000713          	addi	x14,x0,640
800004a8:	40f707b3          	sub	x15,x14,x15
800004ac:	00078713          	addi	x14,x15,0
800004b0:	8000a7b7          	lui	x15,0x8000a
800004b4:	54e7ac23          	sw	x14,1368(x15) # 8000a558 <_stack_top+0xfffea55c>
800004b8:	8000a7b7          	lui	x15,0x8000a
800004bc:	5607a783          	lw	x15,1376(x15) # 8000a560 <_stack_top+0xfffea564>
800004c0:	40f00733          	sub	x14,x0,x15
800004c4:	8000a7b7          	lui	x15,0x8000a
800004c8:	56e7a023          	sw	x14,1376(x15) # 8000a560 <_stack_top+0xfffea564>
800004cc:	8000a7b7          	lui	x15,0x8000a
800004d0:	5587a783          	lw	x15,1368(x15) # 8000a558 <_stack_top+0xfffea55c>
800004d4:	0207d063          	bge	x15,x0,800004f4 <draw_ball+0x1ac>
800004d8:	8000a7b7          	lui	x15,0x8000a
800004dc:	5407ac23          	sw	x0,1368(x15) # 8000a558 <_stack_top+0xfffea55c>
800004e0:	8000a7b7          	lui	x15,0x8000a
800004e4:	5607a783          	lw	x15,1376(x15) # 8000a560 <_stack_top+0xfffea564>
800004e8:	40f00733          	sub	x14,x0,x15
800004ec:	8000a7b7          	lui	x15,0x8000a
800004f0:	56e7a023          	sw	x14,1376(x15) # 8000a560 <_stack_top+0xfffea564>
800004f4:	8000a7b7          	lui	x15,0x8000a
800004f8:	55c7a783          	lw	x15,1372(x15) # 8000a55c <_stack_top+0xfffea560>
800004fc:	00078713          	addi	x14,x15,0
80000500:	8000a7b7          	lui	x15,0x8000a
80000504:	5687a783          	lw	x15,1384(x15) # 8000a568 <_stack_top+0xfffea56c>
80000508:	00f70733          	add	x14,x14,x15
8000050c:	1df00793          	addi	x15,x0,479
80000510:	02e7fa63          	bgeu	x15,x14,80000544 <draw_ball+0x1fc>
80000514:	8000a7b7          	lui	x15,0x8000a
80000518:	5687a783          	lw	x15,1384(x15) # 8000a568 <_stack_top+0xfffea56c>
8000051c:	1e000713          	addi	x14,x0,480
80000520:	40f707b3          	sub	x15,x14,x15
80000524:	00078713          	addi	x14,x15,0
80000528:	8000a7b7          	lui	x15,0x8000a
8000052c:	54e7ae23          	sw	x14,1372(x15) # 8000a55c <_stack_top+0xfffea560>
80000530:	8000a7b7          	lui	x15,0x8000a
80000534:	5647a783          	lw	x15,1380(x15) # 8000a564 <_stack_top+0xfffea568>
80000538:	40f00733          	sub	x14,x0,x15
8000053c:	8000a7b7          	lui	x15,0x8000a
80000540:	56e7a223          	sw	x14,1380(x15) # 8000a564 <_stack_top+0xfffea568>
80000544:	8000a7b7          	lui	x15,0x8000a
80000548:	55c7a783          	lw	x15,1372(x15) # 8000a55c <_stack_top+0xfffea560>
8000054c:	0207d063          	bge	x15,x0,8000056c <draw_ball+0x224>
80000550:	8000a7b7          	lui	x15,0x8000a
80000554:	5407ae23          	sw	x0,1372(x15) # 8000a55c <_stack_top+0xfffea560>
80000558:	8000a7b7          	lui	x15,0x8000a
8000055c:	5647a783          	lw	x15,1380(x15) # 8000a564 <_stack_top+0xfffea568>
80000560:	40f00733          	sub	x14,x0,x15
80000564:	8000a7b7          	lui	x15,0x8000a
80000568:	56e7a223          	sw	x14,1380(x15) # 8000a564 <_stack_top+0xfffea568>
8000056c:	fc042a23          	sw	x0,-44(x8)
80000570:	0c00006f          	jal	x0,80000630 <draw_ball+0x2e8>
80000574:	fc042823          	sw	x0,-48(x8)
80000578:	09c0006f          	jal	x0,80000614 <draw_ball+0x2cc>
8000057c:	8000a7b7          	lui	x15,0x8000a
80000580:	5547a483          	lw	x9,1364(x15) # 8000a554 <_stack_top+0xfffea558>
80000584:	8000a7b7          	lui	x15,0x8000a
80000588:	5587a783          	lw	x15,1368(x15) # 8000a558 <_stack_top+0xfffea55c>
8000058c:	00078713          	addi	x14,x15,0
80000590:	fd442783          	lw	x15,-44(x8)
80000594:	00f70933          	add	x18,x14,x15
80000598:	8000a7b7          	lui	x15,0x8000a
8000059c:	55c7a783          	lw	x15,1372(x15) # 8000a55c <_stack_top+0xfffea560>
800005a0:	00078713          	addi	x14,x15,0
800005a4:	fd042783          	lw	x15,-48(x8)
800005a8:	00f709b3          	add	x19,x14,x15
800005ac:	8000a7b7          	lui	x15,0x8000a
800005b0:	5547a703          	lw	x14,1364(x15) # 8000a554 <_stack_top+0xfffea558>
800005b4:	8000a7b7          	lui	x15,0x8000a
800005b8:	5587a783          	lw	x15,1368(x15) # 8000a558 <_stack_top+0xfffea55c>
800005bc:	00078693          	addi	x13,x15,0
800005c0:	fd442783          	lw	x15,-44(x8)
800005c4:	00f687b3          	add	x15,x13,x15
800005c8:	00078593          	addi	x11,x15,0
800005cc:	8000a7b7          	lui	x15,0x8000a
800005d0:	55c7a783          	lw	x15,1372(x15) # 8000a55c <_stack_top+0xfffea560>
800005d4:	00078693          	addi	x13,x15,0
800005d8:	fd042783          	lw	x15,-48(x8)
800005dc:	00f687b3          	add	x15,x13,x15
800005e0:	00078613          	addi	x12,x15,0
800005e4:	00070513          	addi	x10,x14,0
800005e8:	af5ff0ef          	jal	x1,800000dc <get_pixel>
800005ec:	00050793          	addi	x15,x10,0
800005f0:	0017c793          	xori	x15,x15,1
800005f4:	00078693          	addi	x13,x15,0
800005f8:	00098613          	addi	x12,x19,0
800005fc:	00090593          	addi	x11,x18,0
80000600:	00048513          	addi	x10,x9,0
80000604:	b7dff0ef          	jal	x1,80000180 <set_pixel>
80000608:	fd042783          	lw	x15,-48(x8)
8000060c:	00178793          	addi	x15,x15,1
80000610:	fcf42823          	sw	x15,-48(x8)
80000614:	8000a7b7          	lui	x15,0x8000a
80000618:	5687a783          	lw	x15,1384(x15) # 8000a568 <_stack_top+0xfffea56c>
8000061c:	fd042703          	lw	x14,-48(x8)
80000620:	f4f76ee3          	bltu	x14,x15,8000057c <draw_ball+0x234>
80000624:	fd442783          	lw	x15,-44(x8)
80000628:	00178793          	addi	x15,x15,1
8000062c:	fcf42a23          	sw	x15,-44(x8)
80000630:	8000a7b7          	lui	x15,0x8000a
80000634:	5687a783          	lw	x15,1384(x15) # 8000a568 <_stack_top+0xfffea56c>
80000638:	fd442703          	lw	x14,-44(x8)
8000063c:	f2f76ce3          	bltu	x14,x15,80000574 <draw_ball+0x22c>
80000640:	00000013          	addi	x0,x0,0
80000644:	00000013          	addi	x0,x0,0
80000648:	03c12083          	lw	x1,60(x2)
8000064c:	03812403          	lw	x8,56(x2)
80000650:	03412483          	lw	x9,52(x2)
80000654:	03012903          	lw	x18,48(x2)
80000658:	02c12983          	lw	x19,44(x2)
8000065c:	04010113          	addi	x2,x2,64
80000660:	00008067          	jalr	x0,0(x1)

80000664 <main>:
80000664:	fc010113          	addi	x2,x2,-64
80000668:	02112e23          	sw	x1,60(x2)
8000066c:	02812c23          	sw	x8,56(x2)
80000670:	04010413          	addi	x8,x2,64
80000674:	fe042423          	sw	x0,-24(x8)
80000678:	800017b7          	lui	x15,0x80001
8000067c:	eb878793          	addi	x15,x15,-328 # 80000eb8 <_stack_top+0xfffe0ebc>
80000680:	ffc7f793          	andi	x15,x15,-4
80000684:	fcf42623          	sw	x15,-52(x8)
80000688:	fcc42783          	lw	x15,-52(x8)
8000068c:	0007a783          	lw	x15,0(x15)
80000690:	fef42223          	sw	x15,-28(x8)
80000694:	fe442783          	lw	x15,-28(x8)
80000698:	0ff7f793          	andi	x15,x15,255
8000069c:	fef42023          	sw	x15,-32(x8)
800006a0:	0700006f          	jal	x0,80000710 <main+0xac>
800006a4:	406007b7          	lui	x15,0x40600
800006a8:	00478793          	addi	x15,x15,4 # 40600004 <_boot-0x3f9ffffc>
800006ac:	fe042703          	lw	x14,-32(x8)
800006b0:	00e7a023          	sw	x14,0(x15)
800006b4:	fe842783          	lw	x15,-24(x8)
800006b8:	00178793          	addi	x15,x15,1
800006bc:	fef42423          	sw	x15,-24(x8)
800006c0:	fe842703          	lw	x14,-24(x8)
800006c4:	00300793          	addi	x15,x0,3
800006c8:	02e7d863          	bge	x15,x14,800006f8 <main+0x94>
800006cc:	fec42783          	lw	x15,-20(x8)
800006d0:	00178793          	addi	x15,x15,1
800006d4:	fef42623          	sw	x15,-20(x8)
800006d8:	fec42783          	lw	x15,-20(x8)
800006dc:	00279793          	slli	x15,x15,0x2
800006e0:	00078713          	addi	x14,x15,0
800006e4:	fcc42783          	lw	x15,-52(x8)
800006e8:	00f707b3          	add	x15,x14,x15
800006ec:	0007a783          	lw	x15,0(x15)
800006f0:	fef42223          	sw	x15,-28(x8)
800006f4:	fe042423          	sw	x0,-24(x8)
800006f8:	fe842783          	lw	x15,-24(x8)
800006fc:	00379793          	slli	x15,x15,0x3
80000700:	fe442703          	lw	x14,-28(x8)
80000704:	00f757b3          	srl	x15,x14,x15
80000708:	0ff7f793          	andi	x15,x15,255
8000070c:	fef42023          	sw	x15,-32(x8)
80000710:	fe042783          	lw	x15,-32(x8)
80000714:	f80798e3          	bne	x15,x0,800006a4 <main+0x40>
80000718:	41c007b7          	lui	x15,0x41c00
8000071c:	00478793          	addi	x15,x15,4 # 41c00004 <_boot-0x3e3ffffc>
80000720:	08000737          	lui	x14,0x8000
80000724:	00e7a023          	sw	x14,0(x15)
80000728:	41c007b7          	lui	x15,0x41c00
8000072c:	1d200713          	addi	x14,x0,466
80000730:	00e7a023          	sw	x14,0(x15) # 41c00000 <_boot-0x3e400000>
80000734:	8000a7b7          	lui	x15,0x8000a
80000738:	80016737          	lui	x14,0x80016
8000073c:	60070713          	addi	x14,x14,1536 # 80016600 <_stack_top+0xffff6604>
80000740:	54e7aa23          	sw	x14,1364(x15) # 8000a554 <_stack_top+0xfffea558>
80000744:	8000a7b7          	lui	x15,0x8000a
80000748:	5547a703          	lw	x14,1364(x15) # 8000a554 <_stack_top+0xfffea558>
8000074c:	ffff77b7          	lui	x15,0xffff7
80000750:	a0078793          	addi	x15,x15,-1536 # ffff6a00 <_stack_top+0x7ffd6a04>
80000754:	00f70733          	add	x14,x14,x15
80000758:	8000a7b7          	lui	x15,0x8000a
8000075c:	54e7a823          	sw	x14,1360(x15) # 8000a550 <_stack_top+0xfffea554>
80000760:	8000a7b7          	lui	x15,0x8000a
80000764:	5507a783          	lw	x15,1360(x15) # 8000a550 <_stack_top+0xfffea554>
80000768:	00078513          	addi	x10,x15,0
8000076c:	ae1ff0ef          	jal	x1,8000024c <skullcopy>
80000770:	8000a7b7          	lui	x15,0x8000a
80000774:	5547a783          	lw	x15,1364(x15) # 8000a554 <_stack_top+0xfffea558>
80000778:	00078513          	addi	x10,x15,0
8000077c:	ad1ff0ef          	jal	x1,8000024c <skullcopy>
80000780:	73a007b7          	lui	x15,0x73a00
80000784:	8000a737          	lui	x14,0x8000a
80000788:	55072703          	lw	x14,1360(x14) # 8000a550 <_stack_top+0xfffea554>
8000078c:	00e7a023          	sw	x14,0(x15) # 73a00000 <_boot-0xc600000>
80000790:	400007b7          	lui	x15,0x40000
80000794:	00478793          	addi	x15,x15,4 # 40000004 <_boot-0x3ffffffc>
80000798:	fff00713          	addi	x14,x0,-1
8000079c:	00e7a023          	sw	x14,0(x15)
800007a0:	412007b7          	lui	x15,0x41200
800007a4:	01c78793          	addi	x15,x15,28 # 4120001c <_boot-0x3edfffe4>
800007a8:	fff00713          	addi	x14,x0,-1
800007ac:	00e7a023          	sw	x14,0(x15)
800007b0:	412007b7          	lui	x15,0x41200
800007b4:	00878793          	addi	x15,x15,8 # 41200008 <_boot-0x3edffff8>
800007b8:	fff00713          	addi	x14,x0,-1
800007bc:	00e7a023          	sw	x14,0(x15)
800007c0:	412007b7          	lui	x15,0x41200
800007c4:	00c78793          	addi	x15,x15,12 # 4120000c <_boot-0x3edffff4>
800007c8:	fff00713          	addi	x14,x0,-1
800007cc:	00e7a023          	sw	x14,0(x15)
800007d0:	8ddff0ef          	jal	x1,800000ac <enable_interrupts>
800007d4:	8000a7b7          	lui	x15,0x8000a
800007d8:	14000713          	addi	x14,x0,320
800007dc:	54e7ac23          	sw	x14,1368(x15) # 8000a558 <_stack_top+0xfffea55c>
800007e0:	8000a7b7          	lui	x15,0x8000a
800007e4:	0f000713          	addi	x14,x0,240
800007e8:	54e7ae23          	sw	x14,1372(x15) # 8000a55c <_stack_top+0xfffea560>
800007ec:	835ff0ef          	jal	x1,80000020 <prand>
800007f0:	00050713          	addi	x14,x10,0
800007f4:	00a00793          	addi	x15,x0,10
800007f8:	02f777b3          	remu	x15,x14,x15
800007fc:	00178793          	addi	x15,x15,1
80000800:	00078713          	addi	x14,x15,0
80000804:	8000a7b7          	lui	x15,0x8000a
80000808:	56e7a023          	sw	x14,1376(x15) # 8000a560 <_stack_top+0xfffea564>
8000080c:	815ff0ef          	jal	x1,80000020 <prand>
80000810:	00050713          	addi	x14,x10,0
80000814:	00a00793          	addi	x15,x0,10
80000818:	02f777b3          	remu	x15,x14,x15
8000081c:	00178793          	addi	x15,x15,1
80000820:	00078713          	addi	x14,x15,0
80000824:	8000a7b7          	lui	x15,0x8000a
80000828:	56e7a223          	sw	x14,1380(x15) # 8000a564 <_stack_top+0xfffea568>
8000082c:	ff4ff0ef          	jal	x1,80000020 <prand>
80000830:	00050713          	addi	x14,x10,0
80000834:	00a00793          	addi	x15,x0,10
80000838:	02f777b3          	remu	x15,x14,x15
8000083c:	00178713          	addi	x14,x15,1
80000840:	8000a7b7          	lui	x15,0x8000a
80000844:	56e7a423          	sw	x14,1384(x15) # 8000a568 <_stack_top+0xfffea56c>
80000848:	00100513          	addi	x10,x0,1
8000084c:	afdff0ef          	jal	x1,80000348 <draw_ball>
80000850:	fc042c23          	sw	x0,-40(x8)
80000854:	800017b7          	lui	x15,0x80001
80000858:	ed078793          	addi	x15,x15,-304 # 80000ed0 <_stack_top+0xfffe0ed4>
8000085c:	ffc7f793          	andi	x15,x15,-4
80000860:	fcf42423          	sw	x15,-56(x8)
80000864:	fc842783          	lw	x15,-56(x8)
80000868:	0007a783          	lw	x15,0(x15)
8000086c:	fcf42a23          	sw	x15,-44(x8)
80000870:	fd442783          	lw	x15,-44(x8)
80000874:	0ff7f793          	andi	x15,x15,255
80000878:	fcf42823          	sw	x15,-48(x8)
8000087c:	0700006f          	jal	x0,800008ec <main+0x288>
80000880:	406007b7          	lui	x15,0x40600
80000884:	00478793          	addi	x15,x15,4 # 40600004 <_boot-0x3f9ffffc>
80000888:	fd042703          	lw	x14,-48(x8)
8000088c:	00e7a023          	sw	x14,0(x15)
80000890:	fd842783          	lw	x15,-40(x8)
80000894:	00178793          	addi	x15,x15,1
80000898:	fcf42c23          	sw	x15,-40(x8)
8000089c:	fd842703          	lw	x14,-40(x8)
800008a0:	00300793          	addi	x15,x0,3
800008a4:	02e7d863          	bge	x15,x14,800008d4 <main+0x270>
800008a8:	fdc42783          	lw	x15,-36(x8)
800008ac:	00178793          	addi	x15,x15,1
800008b0:	fcf42e23          	sw	x15,-36(x8)
800008b4:	fdc42783          	lw	x15,-36(x8)
800008b8:	00279793          	slli	x15,x15,0x2
800008bc:	00078713          	addi	x14,x15,0
800008c0:	fc842783          	lw	x15,-56(x8)
800008c4:	00f707b3          	add	x15,x14,x15
800008c8:	0007a783          	lw	x15,0(x15)
800008cc:	fcf42a23          	sw	x15,-44(x8)
800008d0:	fc042c23          	sw	x0,-40(x8)
800008d4:	fd842783          	lw	x15,-40(x8)
800008d8:	00379793          	slli	x15,x15,0x3
800008dc:	fd442703          	lw	x14,-44(x8)
800008e0:	00f757b3          	srl	x15,x14,x15
800008e4:	0ff7f793          	andi	x15,x15,255
800008e8:	fcf42823          	sw	x15,-48(x8)
800008ec:	fd042783          	lw	x15,-48(x8)
800008f0:	f80798e3          	bne	x15,x0,80000880 <main+0x21c>
800008f4:	400007b7          	lui	x15,0x40000
800008f8:	0007a783          	lw	x15,0(x15) # 40000000 <_boot-0x40000000>
800008fc:	fcf42223          	sw	x15,-60(x8)
80000900:	fc442783          	lw	x15,-60(x8)
80000904:	0017f793          	andi	x15,x15,1
80000908:	00079463          	bne	x15,x0,80000910 <main+0x2ac>
8000090c:	fe9ff06f          	jal	x0,800008f4 <main+0x290>
80000910:	00000013          	addi	x0,x0,0
80000914:	fe1ff06f          	jal	x0,800008f4 <main+0x290>

80000918 <vga_isr>:
80000918:	fd010113          	addi	x2,x2,-48
8000091c:	02112623          	sw	x1,44(x2)
80000920:	02812423          	sw	x8,40(x2)
80000924:	03010413          	addi	x8,x2,48
80000928:	00000513          	addi	x10,x0,0
8000092c:	a1dff0ef          	jal	x1,80000348 <draw_ball>
80000930:	fe042423          	sw	x0,-24(x8)
80000934:	800017b7          	lui	x15,0x80001
80000938:	eec78793          	addi	x15,x15,-276 # 80000eec <_stack_top+0xfffe0ef0>
8000093c:	ffc7f793          	andi	x15,x15,-4
80000940:	fcf42e23          	sw	x15,-36(x8)
80000944:	fdc42783          	lw	x15,-36(x8)
80000948:	0007a783          	lw	x15,0(x15)
8000094c:	fef42223          	sw	x15,-28(x8)
80000950:	fe442783          	lw	x15,-28(x8)
80000954:	0ff7f793          	andi	x15,x15,255
80000958:	fef42023          	sw	x15,-32(x8)
8000095c:	0700006f          	jal	x0,800009cc <vga_isr+0xb4>
80000960:	406007b7          	lui	x15,0x40600
80000964:	00478793          	addi	x15,x15,4 # 40600004 <_boot-0x3f9ffffc>
80000968:	fe042703          	lw	x14,-32(x8)
8000096c:	00e7a023          	sw	x14,0(x15)
80000970:	fe842783          	lw	x15,-24(x8)
80000974:	00178793          	addi	x15,x15,1
80000978:	fef42423          	sw	x15,-24(x8)
8000097c:	fe842703          	lw	x14,-24(x8)
80000980:	00300793          	addi	x15,x0,3
80000984:	02e7d863          	bge	x15,x14,800009b4 <vga_isr+0x9c>
80000988:	fec42783          	lw	x15,-20(x8)
8000098c:	00178793          	addi	x15,x15,1
80000990:	fef42623          	sw	x15,-20(x8)
80000994:	fec42783          	lw	x15,-20(x8)
80000998:	00279793          	slli	x15,x15,0x2
8000099c:	00078713          	addi	x14,x15,0
800009a0:	fdc42783          	lw	x15,-36(x8)
800009a4:	00f707b3          	add	x15,x14,x15
800009a8:	0007a783          	lw	x15,0(x15)
800009ac:	fef42223          	sw	x15,-28(x8)
800009b0:	fe042423          	sw	x0,-24(x8)
800009b4:	fe842783          	lw	x15,-24(x8)
800009b8:	00379793          	slli	x15,x15,0x3
800009bc:	fe442703          	lw	x14,-28(x8)
800009c0:	00f757b3          	srl	x15,x14,x15
800009c4:	0ff7f793          	andi	x15,x15,255
800009c8:	fef42023          	sw	x15,-32(x8)
800009cc:	fe042783          	lw	x15,-32(x8)
800009d0:	f80798e3          	bne	x15,x0,80000960 <vga_isr+0x48>
800009d4:	8f9ff0ef          	jal	x1,800002cc <vramcpy>
800009d8:	00000013          	addi	x0,x0,0
800009dc:	02c12083          	lw	x1,44(x2)
800009e0:	02812403          	lw	x8,40(x2)
800009e4:	03010113          	addi	x2,x2,48
800009e8:	00008067          	jalr	x0,0(x1)

800009ec <timer_0_isr>:
800009ec:	fc010113          	addi	x2,x2,-64
800009f0:	02112e23          	sw	x1,60(x2)
800009f4:	02812c23          	sw	x8,56(x2)
800009f8:	04010413          	addi	x8,x2,64
800009fc:	fe042423          	sw	x0,-24(x8)
80000a00:	800017b7          	lui	x15,0x80001
80000a04:	ef078793          	addi	x15,x15,-272 # 80000ef0 <_stack_top+0xfffe0ef4>
80000a08:	ffc7f793          	andi	x15,x15,-4
80000a0c:	fcf42e23          	sw	x15,-36(x8)
80000a10:	fdc42783          	lw	x15,-36(x8)
80000a14:	0007a783          	lw	x15,0(x15)
80000a18:	fef42223          	sw	x15,-28(x8)
80000a1c:	fe442783          	lw	x15,-28(x8)
80000a20:	0ff7f793          	andi	x15,x15,255
80000a24:	fef42023          	sw	x15,-32(x8)
80000a28:	0700006f          	jal	x0,80000a98 <timer_0_isr+0xac>
80000a2c:	406007b7          	lui	x15,0x40600
80000a30:	00478793          	addi	x15,x15,4 # 40600004 <_boot-0x3f9ffffc>
80000a34:	fe042703          	lw	x14,-32(x8)
80000a38:	00e7a023          	sw	x14,0(x15)
80000a3c:	fe842783          	lw	x15,-24(x8)
80000a40:	00178793          	addi	x15,x15,1
80000a44:	fef42423          	sw	x15,-24(x8)
80000a48:	fe842703          	lw	x14,-24(x8)
80000a4c:	00300793          	addi	x15,x0,3
80000a50:	02e7d863          	bge	x15,x14,80000a80 <timer_0_isr+0x94>
80000a54:	fec42783          	lw	x15,-20(x8)
80000a58:	00178793          	addi	x15,x15,1
80000a5c:	fef42623          	sw	x15,-20(x8)
80000a60:	fec42783          	lw	x15,-20(x8)
80000a64:	00279793          	slli	x15,x15,0x2
80000a68:	00078713          	addi	x14,x15,0
80000a6c:	fdc42783          	lw	x15,-36(x8)
80000a70:	00f707b3          	add	x15,x14,x15
80000a74:	0007a783          	lw	x15,0(x15)
80000a78:	fef42223          	sw	x15,-28(x8)
80000a7c:	fe042423          	sw	x0,-24(x8)
80000a80:	fe842783          	lw	x15,-24(x8)
80000a84:	00379793          	slli	x15,x15,0x3
80000a88:	fe442703          	lw	x14,-28(x8)
80000a8c:	00f757b3          	srl	x15,x14,x15
80000a90:	0ff7f793          	andi	x15,x15,255
80000a94:	fef42023          	sw	x15,-32(x8)
80000a98:	fe042783          	lw	x15,-32(x8)
80000a9c:	f80798e3          	bne	x15,x0,80000a2c <timer_0_isr+0x40>
80000aa0:	d80ff0ef          	jal	x1,80000020 <prand>
80000aa4:	00050793          	addi	x15,x10,0
80000aa8:	0077f793          	andi	x15,x15,7
80000aac:	fcf42c23          	sw	x15,-40(x8)
80000ab0:	d70ff0ef          	jal	x1,80000020 <prand>
80000ab4:	00050793          	addi	x15,x10,0
80000ab8:	0077f793          	andi	x15,x15,7
80000abc:	fcf42a23          	sw	x15,-44(x8)
80000ac0:	d60ff0ef          	jal	x1,80000020 <prand>
80000ac4:	00050793          	addi	x15,x10,0
80000ac8:	0017f793          	andi	x15,x15,1
80000acc:	fcf42823          	sw	x15,-48(x8)
80000ad0:	d50ff0ef          	jal	x1,80000020 <prand>
80000ad4:	00050793          	addi	x15,x10,0
80000ad8:	0017f793          	andi	x15,x15,1
80000adc:	fcf42623          	sw	x15,-52(x8)
80000ae0:	fd042783          	lw	x15,-48(x8)
80000ae4:	02078063          	beq	x15,x0,80000b04 <timer_0_isr+0x118>
80000ae8:	8000a7b7          	lui	x15,0x8000a
80000aec:	5607a783          	lw	x15,1376(x15) # 8000a560 <_stack_top+0xfffea564>
80000af0:	00078713          	addi	x14,x15,0
80000af4:	fd842783          	lw	x15,-40(x8)
80000af8:	40f707b3          	sub	x15,x14,x15
80000afc:	00078713          	addi	x14,x15,0
80000b00:	01c0006f          	jal	x0,80000b1c <timer_0_isr+0x130>
80000b04:	8000a7b7          	lui	x15,0x8000a
80000b08:	5607a783          	lw	x15,1376(x15) # 8000a560 <_stack_top+0xfffea564>
80000b0c:	00078713          	addi	x14,x15,0
80000b10:	fd842783          	lw	x15,-40(x8)
80000b14:	00f707b3          	add	x15,x14,x15
80000b18:	00078713          	addi	x14,x15,0
80000b1c:	8000a7b7          	lui	x15,0x8000a
80000b20:	56e7a023          	sw	x14,1376(x15) # 8000a560 <_stack_top+0xfffea564>
80000b24:	fcc42783          	lw	x15,-52(x8)
80000b28:	02078063          	beq	x15,x0,80000b48 <timer_0_isr+0x15c>
80000b2c:	8000a7b7          	lui	x15,0x8000a
80000b30:	5647a783          	lw	x15,1380(x15) # 8000a564 <_stack_top+0xfffea568>
80000b34:	00078713          	addi	x14,x15,0
80000b38:	fd442783          	lw	x15,-44(x8)
80000b3c:	40f707b3          	sub	x15,x14,x15
80000b40:	00078713          	addi	x14,x15,0
80000b44:	01c0006f          	jal	x0,80000b60 <timer_0_isr+0x174>
80000b48:	8000a7b7          	lui	x15,0x8000a
80000b4c:	5647a783          	lw	x15,1380(x15) # 8000a564 <_stack_top+0xfffea568>
80000b50:	00078713          	addi	x14,x15,0
80000b54:	fd442783          	lw	x15,-44(x8)
80000b58:	00f707b3          	add	x15,x14,x15
80000b5c:	00078713          	addi	x14,x15,0
80000b60:	8000a7b7          	lui	x15,0x8000a
80000b64:	56e7a223          	sw	x14,1380(x15) # 8000a564 <_stack_top+0xfffea568>
80000b68:	00000013          	addi	x0,x0,0
80000b6c:	03c12083          	lw	x1,60(x2)
80000b70:	03812403          	lw	x8,56(x2)
80000b74:	04010113          	addi	x2,x2,64
80000b78:	00008067          	jalr	x0,0(x1)

80000b7c <timer_1_isr>:
80000b7c:	fd010113          	addi	x2,x2,-48
80000b80:	02812623          	sw	x8,44(x2)
80000b84:	03010413          	addi	x8,x2,48
80000b88:	fe042423          	sw	x0,-24(x8)
80000b8c:	800017b7          	lui	x15,0x80001
80000b90:	f1078793          	addi	x15,x15,-240 # 80000f10 <_stack_top+0xfffe0f14>
80000b94:	ffc7f793          	andi	x15,x15,-4
80000b98:	fcf42e23          	sw	x15,-36(x8)
80000b9c:	fdc42783          	lw	x15,-36(x8)
80000ba0:	0007a783          	lw	x15,0(x15)
80000ba4:	fef42223          	sw	x15,-28(x8)
80000ba8:	fe442783          	lw	x15,-28(x8)
80000bac:	0ff7f793          	andi	x15,x15,255
80000bb0:	fef42023          	sw	x15,-32(x8)
80000bb4:	0700006f          	jal	x0,80000c24 <timer_1_isr+0xa8>
80000bb8:	406007b7          	lui	x15,0x40600
80000bbc:	00478793          	addi	x15,x15,4 # 40600004 <_boot-0x3f9ffffc>
80000bc0:	fe042703          	lw	x14,-32(x8)
80000bc4:	00e7a023          	sw	x14,0(x15)
80000bc8:	fe842783          	lw	x15,-24(x8)
80000bcc:	00178793          	addi	x15,x15,1
80000bd0:	fef42423          	sw	x15,-24(x8)
80000bd4:	fe842703          	lw	x14,-24(x8)
80000bd8:	00300793          	addi	x15,x0,3
80000bdc:	02e7d863          	bge	x15,x14,80000c0c <timer_1_isr+0x90>
80000be0:	fec42783          	lw	x15,-20(x8)
80000be4:	00178793          	addi	x15,x15,1
80000be8:	fef42623          	sw	x15,-20(x8)
80000bec:	fec42783          	lw	x15,-20(x8)
80000bf0:	00279793          	slli	x15,x15,0x2
80000bf4:	00078713          	addi	x14,x15,0
80000bf8:	fdc42783          	lw	x15,-36(x8)
80000bfc:	00f707b3          	add	x15,x14,x15
80000c00:	0007a783          	lw	x15,0(x15)
80000c04:	fef42223          	sw	x15,-28(x8)
80000c08:	fe042423          	sw	x0,-24(x8)
80000c0c:	fe842783          	lw	x15,-24(x8)
80000c10:	00379793          	slli	x15,x15,0x3
80000c14:	fe442703          	lw	x14,-28(x8)
80000c18:	00f757b3          	srl	x15,x14,x15
80000c1c:	0ff7f793          	andi	x15,x15,255
80000c20:	fef42023          	sw	x15,-32(x8)
80000c24:	fe042783          	lw	x15,-32(x8)
80000c28:	f80798e3          	bne	x15,x0,80000bb8 <timer_1_isr+0x3c>
80000c2c:	00000013          	addi	x0,x0,0
80000c30:	00000013          	addi	x0,x0,0
80000c34:	02c12403          	lw	x8,44(x2)
80000c38:	03010113          	addi	x2,x2,48
80000c3c:	00008067          	jalr	x0,0(x1)

80000c40 <interrupt_handler>:
80000c40:	fe010113          	addi	x2,x2,-32
80000c44:	00112e23          	sw	x1,28(x2)
80000c48:	00812c23          	sw	x8,24(x2)
80000c4c:	02010413          	addi	x8,x2,32
80000c50:	8000a7b7          	lui	x15,0x8000a
80000c54:	00100713          	addi	x14,x0,1
80000c58:	54e7a623          	sw	x14,1356(x15) # 8000a54c <_stack_top+0xfffea550>
80000c5c:	8000a7b7          	lui	x15,0x8000a
80000c60:	5707a783          	lw	x15,1392(x15) # 8000a570 <_stack_top+0xfffea574>
80000c64:	00178713          	addi	x14,x15,1
80000c68:	8000a7b7          	lui	x15,0x8000a
80000c6c:	56e7a823          	sw	x14,1392(x15) # 8000a570 <_stack_top+0xfffea574>
80000c70:	412007b7          	lui	x15,0x41200
80000c74:	0007a783          	lw	x15,0(x15) # 41200000 <_boot-0x3ee00000>
80000c78:	fef42623          	sw	x15,-20(x8)
80000c7c:	73a007b7          	lui	x15,0x73a00
80000c80:	00878793          	addi	x15,x15,8 # 73a00008 <_boot-0xc5ffff8>
80000c84:	0007a783          	lw	x15,0(x15)
80000c88:	fef42423          	sw	x15,-24(x8)
80000c8c:	fe842783          	lw	x15,-24(x8)
80000c90:	00078c63          	beq	x15,x0,80000ca8 <interrupt_handler+0x68>
80000c94:	c85ff0ef          	jal	x1,80000918 <vga_isr>
80000c98:	73a007b7          	lui	x15,0x73a00
80000c9c:	00878793          	addi	x15,x15,8 # 73a00008 <_boot-0xc5ffff8>
80000ca0:	fe842703          	lw	x14,-24(x8)
80000ca4:	00e7a023          	sw	x14,0(x15)
80000ca8:	41c007b7          	lui	x15,0x41c00
80000cac:	0007a783          	lw	x15,0(x15) # 41c00000 <_boot-0x3e400000>
80000cb0:	fef42223          	sw	x15,-28(x8)
80000cb4:	fe442783          	lw	x15,-28(x8)
80000cb8:	1007f793          	andi	x15,x15,256
80000cbc:	00078a63          	beq	x15,x0,80000cd0 <interrupt_handler+0x90>
80000cc0:	d2dff0ef          	jal	x1,800009ec <timer_0_isr>
80000cc4:	41c007b7          	lui	x15,0x41c00
80000cc8:	fe442703          	lw	x14,-28(x8)
80000ccc:	00e7a023          	sw	x14,0(x15) # 41c00000 <_boot-0x3e400000>
80000cd0:	41c007b7          	lui	x15,0x41c00
80000cd4:	01078793          	addi	x15,x15,16 # 41c00010 <_boot-0x3e3ffff0>
80000cd8:	0007a783          	lw	x15,0(x15)
80000cdc:	fef42023          	sw	x15,-32(x8)
80000ce0:	fe042783          	lw	x15,-32(x8)
80000ce4:	1007f793          	andi	x15,x15,256
80000ce8:	00078c63          	beq	x15,x0,80000d00 <interrupt_handler+0xc0>
80000cec:	e91ff0ef          	jal	x1,80000b7c <timer_1_isr>
80000cf0:	41c007b7          	lui	x15,0x41c00
80000cf4:	01078793          	addi	x15,x15,16 # 41c00010 <_boot-0x3e3ffff0>
80000cf8:	fe042703          	lw	x14,-32(x8)
80000cfc:	00e7a023          	sw	x14,0(x15)
80000d00:	412007b7          	lui	x15,0x41200
80000d04:	00c78793          	addi	x15,x15,12 # 4120000c <_boot-0x3edffff4>
80000d08:	fec42703          	lw	x14,-20(x8)
80000d0c:	00e7a023          	sw	x14,0(x15)
80000d10:	00000013          	addi	x0,x0,0
80000d14:	01c12083          	lw	x1,28(x2)
80000d18:	01812403          	lw	x8,24(x2)
80000d1c:	02010113          	addi	x2,x2,32
80000d20:	00008067          	jalr	x0,0(x1)

80000d24 <c_trap_handler>:
80000d24:	fc010113          	addi	x2,x2,-64
80000d28:	02112e23          	sw	x1,60(x2)
80000d2c:	02812c23          	sw	x8,56(x2)
80000d30:	04010413          	addi	x8,x2,64
80000d34:	fca42623          	sw	x10,-52(x8)
80000d38:	fcb42423          	sw	x11,-56(x8)
80000d3c:	fcc42223          	sw	x12,-60(x8)
80000d40:	fcc42703          	lw	x14,-52(x8)
80000d44:	800007b7          	lui	x15,0x80000
80000d48:	00b78793          	addi	x15,x15,11 # 8000000b <_stack_top+0xfffe000f>
80000d4c:	00f77733          	and	x14,x14,x15
80000d50:	800007b7          	lui	x15,0x80000
80000d54:	00b78793          	addi	x15,x15,11 # 8000000b <_stack_top+0xfffe000f>
80000d58:	00f71663          	bne	x14,x15,80000d64 <c_trap_handler+0x40>
80000d5c:	ee5ff0ef          	jal	x1,80000c40 <interrupt_handler>
80000d60:	0a80006f          	jal	x0,80000e08 <c_trap_handler+0xe4>
80000d64:	fe042423          	sw	x0,-24(x8)
80000d68:	800017b7          	lui	x15,0x80001
80000d6c:	f2078793          	addi	x15,x15,-224 # 80000f20 <_stack_top+0xfffe0f24>
80000d70:	ffc7f793          	andi	x15,x15,-4
80000d74:	fcf42e23          	sw	x15,-36(x8)
80000d78:	fdc42783          	lw	x15,-36(x8)
80000d7c:	0007a783          	lw	x15,0(x15)
80000d80:	fef42223          	sw	x15,-28(x8)
80000d84:	fe442783          	lw	x15,-28(x8)
80000d88:	0ff7f793          	andi	x15,x15,255
80000d8c:	fef42023          	sw	x15,-32(x8)
80000d90:	0700006f          	jal	x0,80000e00 <c_trap_handler+0xdc>
80000d94:	406007b7          	lui	x15,0x40600
80000d98:	00478793          	addi	x15,x15,4 # 40600004 <_boot-0x3f9ffffc>
80000d9c:	fe042703          	lw	x14,-32(x8)
80000da0:	00e7a023          	sw	x14,0(x15)
80000da4:	fe842783          	lw	x15,-24(x8)
80000da8:	00178793          	addi	x15,x15,1
80000dac:	fef42423          	sw	x15,-24(x8)
80000db0:	fe842703          	lw	x14,-24(x8)
80000db4:	00300793          	addi	x15,x0,3
80000db8:	02e7d863          	bge	x15,x14,80000de8 <c_trap_handler+0xc4>
80000dbc:	fec42783          	lw	x15,-20(x8)
80000dc0:	00178793          	addi	x15,x15,1
80000dc4:	fef42623          	sw	x15,-20(x8)
80000dc8:	fec42783          	lw	x15,-20(x8)
80000dcc:	00279793          	slli	x15,x15,0x2
80000dd0:	00078713          	addi	x14,x15,0
80000dd4:	fdc42783          	lw	x15,-36(x8)
80000dd8:	00f707b3          	add	x15,x14,x15
80000ddc:	0007a783          	lw	x15,0(x15)
80000de0:	fef42223          	sw	x15,-28(x8)
80000de4:	fe042423          	sw	x0,-24(x8)
80000de8:	fe842783          	lw	x15,-24(x8)
80000dec:	00379793          	slli	x15,x15,0x3
80000df0:	fe442703          	lw	x14,-28(x8)
80000df4:	00f757b3          	srl	x15,x14,x15
80000df8:	0ff7f793          	andi	x15,x15,255
80000dfc:	fef42023          	sw	x15,-32(x8)
80000e00:	fe042783          	lw	x15,-32(x8)
80000e04:	f80798e3          	bne	x15,x0,80000d94 <c_trap_handler+0x70>
80000e08:	00000013          	addi	x0,x0,0
80000e0c:	03c12083          	lw	x1,60(x2)
80000e10:	03812403          	lw	x8,56(x2)
80000e14:	04010113          	addi	x2,x2,64
80000e18:	00008067          	jalr	x0,0(x1)

80000e1c <__trap_handler>:
80000e1c:	fc010113          	addi	x2,x2,-64
80000e20:	00112023          	sw	x1,0(x2)
80000e24:	00a12223          	sw	x10,4(x2)
80000e28:	00b12423          	sw	x11,8(x2)
80000e2c:	00c12623          	sw	x12,12(x2)
80000e30:	00d12a23          	sw	x13,20(x2)
80000e34:	00e12a23          	sw	x14,20(x2)
80000e38:	00f12c23          	sw	x15,24(x2)
80000e3c:	01012e23          	sw	x16,28(x2)
80000e40:	03112023          	sw	x17,32(x2)
80000e44:	02512223          	sw	x5,36(x2)
80000e48:	02612423          	sw	x6,40(x2)
80000e4c:	02712623          	sw	x7,44(x2)
80000e50:	03c12823          	sw	x28,48(x2)
80000e54:	03d12a23          	sw	x29,52(x2)
80000e58:	03e12c23          	sw	x30,56(x2)
80000e5c:	03f12e23          	sw	x31,60(x2)
80000e60:	34202573          	csrrs	x10,mcause,x0
80000e64:	344025f3          	csrrs	x11,mip,x0
80000e68:	30402673          	csrrs	x12,mie,x0
80000e6c:	eb9ff0ef          	jal	x1,80000d24 <c_trap_handler>
80000e70:	00012083          	lw	x1,0(x2)
80000e74:	00412503          	lw	x10,4(x2)
80000e78:	00812583          	lw	x11,8(x2)
80000e7c:	00c12603          	lw	x12,12(x2)
80000e80:	01412683          	lw	x13,20(x2)
80000e84:	01412703          	lw	x14,20(x2)
80000e88:	01812783          	lw	x15,24(x2)
80000e8c:	01c12803          	lw	x16,28(x2)
80000e90:	02012883          	lw	x17,32(x2)
80000e94:	02412283          	lw	x5,36(x2)
80000e98:	02812303          	lw	x6,40(x2)
80000e9c:	02c12383          	lw	x7,44(x2)
80000ea0:	03012e03          	lw	x28,48(x2)
80000ea4:	03412e83          	lw	x29,52(x2)
80000ea8:	03812f03          	lw	x30,56(x2)
80000eac:	03c12f83          	lw	x31,60(x2)
80000eb0:	04010113          	addi	x2,x2,64
80000eb4:	30200073          	mret

80000eb8 <_etext>:
80000eb8:	2d2d                	c.jal	800014f2 <skull_bits+0x5aa>
80000eba:	6220                	c.flw	f8,64(x12)
80000ebc:	20746f6f          	jal	x30,800478c2 <_stack_top+0x278c6>
80000ec0:	706d6f63          	bltu	x26,x6,800015de <skull_bits+0x696>
80000ec4:	656c                	c.flw	f11,76(x10)
80000ec6:	6574                	c.flw	f13,76(x10)
80000ec8:	2d20                	c.fld	f8,88(x10)
80000eca:	0d2d                	c.addi	x26,11
80000ecc:	000a                	c.slli	x0,0x2
80000ece:	0000                	c.unimp
80000ed0:	2d2d                	c.jal	8000150a <skull_bits+0x5c2>
80000ed2:	6520                	c.flw	f8,72(x10)
80000ed4:	746e                	c.flwsp	f8,248(x2)
80000ed6:	7265                	c.lui	x4,0xffff9
80000ed8:	6e69                	c.lui	x28,0x1a
80000eda:	616d2067          	0x616d2067
80000ede:	6e69                	c.lui	x28,0x1a
80000ee0:	6c20                	c.flw	f8,88(x8)
80000ee2:	20706f6f          	jal	x30,800078e8 <skull_bits+0x69a0>
80000ee6:	2d2d                	c.jal	80001520 <skull_bits+0x5d8>
80000ee8:	0a0d                	c.addi	x20,3
80000eea:	0000                	c.unimp
80000eec:	002e                	c.slli	x0,0xb
80000eee:	0000                	c.unimp
80000ef0:	0a0d                	c.addi	x20,3
80000ef2:	6974                	c.flw	f13,84(x10)
80000ef4:	656d                	c.lui	x10,0x1b
80000ef6:	5f72                	c.lwsp	x30,60(x2)
80000ef8:	5f30                	c.lw	x12,120(x14)
80000efa:	7369                	c.lui	x6,0xffffa
80000efc:	3a72                	c.fldsp	f20,312(x2)
80000efe:	6420                	c.flw	f8,72(x8)
80000f00:	6172                	c.flwsp	f2,28(x2)
80000f02:	676e6977          	0x676e6977
80000f06:	6220                	c.flw	f8,64(x12)
80000f08:	6c61                	c.lui	x24,0x18
80000f0a:	0d6c                	c.addi4spn	x11,x2,668
80000f0c:	000a                	c.slli	x0,0x2
80000f0e:	0000                	c.unimp
80000f10:	6974                	c.flw	f13,84(x10)
80000f12:	656d                	c.lui	x10,0x1b
80000f14:	5f72                	c.lwsp	x30,60(x2)
80000f16:	5f31                	c.li	x30,-20
80000f18:	7369                	c.lui	x6,0xffffa
80000f1a:	0d72                	c.slli	x26,0x1c
80000f1c:	000a                	c.slli	x0,0x2
80000f1e:	0000                	c.unimp
80000f20:	6e55                	c.lui	x28,0x15
80000f22:	776f6e6b          	0x776f6e6b
80000f26:	206e                	c.fldsp	f0,216(x2)
80000f28:	7274                	c.flw	f13,100(x12)
80000f2a:	7061                	c.lui	x0,0xffff8
80000f2c:	6320                	c.flw	f8,64(x14)
80000f2e:	7561                	c.lui	x10,0xffff8
80000f30:	202c6573          	csrrsi	x10,hedeleg,24
80000f34:	6572                	c.flwsp	f10,28(x2)
80000f36:	696d7573          	csrrci	x10,0x696,26
80000f3a:	676e                	c.flwsp	f14,216(x2)
80000f3c:	6520                	c.flw	f8,72(x10)
80000f3e:	6578                	c.flw	f14,76(x10)
80000f40:	69747563          	bgeu	x8,x23,800015ca <skull_bits+0x682>
80000f44:	000a6e6f          	jal	x28,800a6f44 <_stack_top+0x86f48>

80000f48 <skull_bits>:
	...
80001178:	003fffff ffffffff ffffffff ffffffff     ..?.............
80001188:	ffffffff ffffffff ffffffff ffffffff     ................
80001198:	ffffffff ffffffff ffffffff ffffffff     ................
800011a8:	ffffffff ffffffff ffffffff ffffffff     ................
800011b8:	ffffffff ffffffff ffffffff ffffff80     ................
800011c8:	003fffff ffffffff ffffffff ffffffff     ..?.............
800011d8:	ffffffff ffffffff ffffffff ffffffff     ................
800011e8:	ffffffff ffffffff ffffffff ffffffff     ................
800011f8:	ffffffff ffffffff ffffffff ffffffff     ................
80001208:	ffffffff ffffffff ffffffff ffffff80     ................
80001218:	003fffff ffffffff ffffffff ffffffff     ..?.............
80001228:	ffffffff ffffffff ffffffff ffffffff     ................
80001238:	ffffffff ffffffff ffffffff ffffffff     ................
80001248:	ffffffff ffffffff ffffffff ffffffff     ................
80001258:	ffffffff ffffffff ffffffff ffffff80     ................
80001268:	003fffff ffffffff ffffffff ffffffff     ..?.............
80001278:	ffffffff ffffffff ffffffff ffffffff     ................
80001288:	ffffffff ffffffff ffffffff ffffffff     ................
80001298:	ffffffff ffffffff ffffffff ffffffff     ................
800012a8:	ffffffff ffffffff ffffffff ffffff80     ................
800012b8:	003fffff ffffffff fffffffe 00000000     ..?.............
	...
800012fc:	7fffffff ffffffff ffffff80 003fffff     ..............?.
8000130c:	ffffffff fffffffe 00000000 00000000     ................
	...
8000134c:	7fffffff ffffffff ffffff80 003fffff     ..............?.
8000135c:	ffffffff fffffffe 00000000 00000000     ................
	...
8000139c:	7fffffff ffffffff ffffff80 003fffff     ..............?.
800013ac:	ffffffff fffffffe 00000000 00000000     ................
	...
800013ec:	7fffffff ffffffff ffffff80 003fffff     ..............?.
800013fc:	ffffffff fffffffe 00000000 00000000     ................
	...
8000143c:	7fffffff ffffffff ffffff80 003fffff     ..............?.
8000144c:	ffffffff fffffffe 00000000 00000000     ................
	...
8000148c:	7fffffff ffffffff ffffff80 003fffff     ..............?.
8000149c:	ffffffff fffffffe 00000000 00000000     ................
	...
800014dc:	7fffffff ffffffff ffffff80 003fffff     ..............?.
800014ec:	ffffffff fffffffe 00000000 00000000     ................
	...
8000152c:	7fffffff ffffffff ffffff80 003fffff     ..............?.
8000153c:	ffffffff fffffffe 00000000 00000000     ................
	...
8000157c:	7fffffff ffffffff ffffff80 003fffff     ..............?.
8000158c:	ffffffff fffffffe 00000000 00000000     ................
	...
800015cc:	7fffffff ffffffff ffffff80 003fffff     ..............?.
800015dc:	ffffffff fffffffe 00000000 00000000     ................
	...
8000161c:	7fffffff ffffffff ffffff80 003fffff     ..............?.
8000162c:	ffffffff fffffffe 00000000 00000000     ................
	...
8000166c:	7fffffff ffffffff ffffff80 003fffff     ..............?.
8000167c:	ffffffff fffffffe 00000000 00000000     ................
	...
800016bc:	7fffffff ffffffff ffffff80 003fffff     ..............?.
800016cc:	ffffffff fffffffe 00000000 00000000     ................
	...
8000170c:	7fffffff ffffffff ffffff80 003fffff     ..............?.
8000171c:	ffffffff fffffffe 00000000 00000000     ................
	...
8000175c:	7fffffff ffffffff ffffff80 003fffff     ..............?.
8000176c:	ffffffff fffffffe 00000000 00000000     ................
	...
800017ac:	7fffffff ffffffff ffffff80 003fffff     ..............?.
800017bc:	ffffffff fffffffe 00000000 00000000     ................
	...
800017fc:	7fffffff ffffffff ffffff80 003fffff     ..............?.
8000180c:	ffffffff fffffffe 00000000 00000000     ................
	...
8000184c:	7fffffff ffffffff ffffff80 003fffff     ..............?.
8000185c:	ffffffff fffffffe 00000000 00000000     ................
	...
8000189c:	7fffffff ffffffff ffffff80 003fffff     ..............?.
800018ac:	ffffffff fffffffe 00000000 00000000     ................
	...
800018ec:	7fffffff ffffffff ffffff80 003fffff     ..............?.
800018fc:	ffffffff fffffffe 00000000 00000000     ................
	...
8000193c:	7fffffff ffffffff ffffff80 003fffff     ..............?.
8000194c:	ffffffff fffffffe 00000000 00000000     ................
	...
8000198c:	7fffffff ffffffff ffffff80 003fffff     ..............?.
8000199c:	ffffffff fffffffe 00000000 00000000     ................
	...
800019dc:	7fffffff ffffffff ffffff80 003fffff     ..............?.
800019ec:	ffffffff fffffffe 00000000 00000000     ................
	...
80001a2c:	7fffffff ffffffff ffffff80 003fffff     ..............?.
80001a3c:	ffffffff fffffffe 00000000 00000000     ................
	...
80001a7c:	7fffffff ffffffff ffffff80 003fffff     ..............?.
80001a8c:	ffffffff fffffffe 00000000 00000000     ................
	...
80001acc:	7fffffff ffffffff ffffff80 003fffff     ..............?.
80001adc:	ffffffff fffffffe 00000000 00000000     ................
	...
80001b1c:	7fffffff ffffffff ffffff80 003fffff     ..............?.
80001b2c:	ffffffff fffffffe 00000000 00000000     ................
	...
80001b6c:	7fffffff ffffffff ffffff80 003fffff     ..............?.
80001b7c:	ffffffff fffffffe 00000000 00000000     ................
	...
80001bbc:	7fffffff ffffffff ffffff80 003fffff     ..............?.
80001bcc:	ffffffff fffffffe 00000000 00000000     ................
	...
80001c0c:	7fffffff ffffffff ffffff80 003fffff     ..............?.
80001c1c:	ffffffff fffffffe 00000000 00000000     ................
	...
80001c5c:	7fffffff ffffffff ffffff80 003fffff     ..............?.
80001c6c:	ffffffff fffffffe 00000000 00000000     ................
	...
80001cac:	7fffffff ffffffff ffffff80 003fffff     ..............?.
80001cbc:	ffffffff fffffffe 00000000 00000000     ................
	...
80001cfc:	7fffffff ffffffff ffffff80 003fffff     ..............?.
80001d0c:	ffffffff fffffffe 00000000 00000000     ................
	...
80001d4c:	7fffffff ffffffff ffffff80 003fffff     ..............?.
80001d5c:	ffffffff fffffffe 00000000 00000000     ................
	...
80001d9c:	7fffffff ffffffff ffffff80 003fffff     ..............?.
80001dac:	ffffffff fffffffe 00000000 00000000     ................
	...
80001dec:	7fffffff ffffffff ffffff80 003fffff     ..............?.
80001dfc:	ffffffff fffffffe 00000000 00000000     ................
	...
80001e3c:	7fffffff ffffffff ffffff80 003fffff     ..............?.
80001e4c:	ffffffff fffffffe 00000000 00000000     ................
	...
80001e8c:	7fffffff ffffffff ffffff80 003fffff     ..............?.
80001e9c:	ffffffff fffffffe 00000000 00000000     ................
	...
80001edc:	7fffffff ffffffff ffffff80 003fffff     ..............?.
80001eec:	ffffffff fffffffe 00000000 00000000     ................
	...
80001f2c:	7fffffff ffffffff ffffff80 003fffff     ..............?.
80001f3c:	ffffffff fffffffe 00000000 00000000     ................
	...
80001f7c:	7fffffff ffffffff ffffff80 003fffff     ..............?.
80001f8c:	ffffffff fffffffe 00000000 00000000     ................
	...
80001fcc:	7fffffff ffffffff ffffff80 003fffff     ..............?.
80001fdc:	ffffffff fffffffe 00000000 00000000     ................
	...
8000201c:	7fffffff ffffffff ffffff80 003fffff     ..............?.
8000202c:	ffffffff fffffffe 00000000 00000000     ................
	...
8000206c:	7fffffff ffffffff ffffff80 003fffff     ..............?.
8000207c:	ffffffff fffffffe 00000000 00000000     ................
	...
800020bc:	7fffffff ffffffff ffffff80 003fffff     ..............?.
800020cc:	ffffffff fffffffe 00000000 00000000     ................
	...
8000210c:	7fffffff ffffffff ffffff80 003fffff     ..............?.
8000211c:	ffffffff fffffffe 00000000 00000000     ................
	...
8000215c:	7fffffff ffffffff ffffff80 003fffff     ..............?.
8000216c:	ffffffff fffffffe 00000000 00000000     ................
	...
800021ac:	7fffffff ffffffff ffffff80 003fffff     ..............?.
800021bc:	ffffffff fffffffe 00000000 00000000     ................
	...
800021dc:	00001fff ffffffe0 00000000 00000000     ................
	...
800021fc:	7fffffff ffffffff ffffff80 003fffff     ..............?.
8000220c:	ffffffff fffffffe 00000000 00000000     ................
	...
8000222c:	007fffff ffffffff c0000000 00000000     ................
	...
8000224c:	7fffffff ffffffff ffffff80 003fffff     ..............?.
8000225c:	ffffffff fffffffe 00000000 00000000     ................
	...
8000227c:	3fffffff ffffffff fe000000 00000000     ...?............
	...
8000229c:	7fffffff ffffffff ffffff80 003fffff     ..............?.
800022ac:	ffffffff fffffffe 00000000 00000000     ................
	...
800022c8:	0000000f ffffffff ffffffff ffc00000     ................
	...
800022ec:	7fffffff ffffffff ffffff80 003fffff     ..............?.
800022fc:	ffffffff fffffffe 00000000 00000000     ................
	...
80002318:	000001ff ffffffff ffffffff fffc0000     ................
	...
8000233c:	7fffffff ffffffff ffffff80 003fffff     ..............?.
8000234c:	ffffffff fffffffe 00000000 00000000     ................
	...
80002368:	00001fff ffffffff ffffffff ffff8000     ................
	...
8000238c:	7fffffff ffffffff ffffff80 003fffff     ..............?.
8000239c:	ffffffff fffffffe 00000000 00000000     ................
	...
800023b8:	0000ffff ffffffff ffffffff ffffe000     ................
	...
800023dc:	7fffffff ffffffff ffffff80 003fffff     ..............?.
800023ec:	ffffffff fffffffe 00000000 00000000     ................
	...
80002408:	0007ffff fffffe00 0000007f fffffc00     ................
	...
8000242c:	7fffffff ffffffff ffffff80 003fffff     ..............?.
8000243c:	ffffffff fffffffe 00000000 00000000     ................
	...
80002458:	003fffff fff00000 00000000 ffffff00     ..?.............
	...
8000247c:	7fffffff ffffffff ffffff80 003fffff     ..............?.
8000248c:	ffffffff fffffffe 00000000 00000000     ................
	...
800024a8:	01ffffff f0000000 00000000 07ffffc0     ................
	...
800024cc:	7fffffff ffffffff ffffff80 003fffff     ..............?.
800024dc:	ffffffff fffffffe 00000000 00000000     ................
	...
800024f8:	07fffffe 00000000 00000000 007fffe0     ................
	...
8000251c:	7fffffff ffffffff ffffff80 003fffff     ..............?.
8000252c:	ffffffff fffffffe 00000000 00000000     ................
	...
80002548:	3fffffc0 00000000 00000000 000ffff8     ...?............
	...
8000256c:	7fffffff ffffffff ffffff80 003fffff     ..............?.
8000257c:	ffffffff fffffffe 00000000 00000000     ................
	...
80002598:	fffffc00 00000000 00000000 0001fffe     ................
	...
800025bc:	7fffffff ffffffff ffffff80 003fffff     ..............?.
800025cc:	ffffffff fffffffe 00000000 00000000     ................
	...
800025e4:	00000003 ffffc000 00000000 00000000     ................
800025f4:	00007fff 00000000 00000000 00000000     ................
	...
8000260c:	7fffffff ffffffff ffffff80 003fffff     ..............?.
8000261c:	ffffffff fffffffe 00000000 00000000     ................
	...
80002634:	00000007 fffe0000 00000000 00000000     ................
80002644:	00001fff c0000000 00000000 00000000     ................
	...
8000265c:	7fffffff ffffffff ffffff80 003fffff     ..............?.
8000266c:	ffffffff fffffffe 00000000 00000000     ................
	...
80002684:	0000001f fff00000 00000000 00000000     ................
80002694:	000007ff e0000000 00000000 00000000     ................
	...
800026ac:	7fffffff ffffffff ffffff80 003fffff     ..............?.
800026bc:	ffffffff fffffffe 00000000 00000000     ................
	...
800026d4:	0000007f ff800000 00000000 00000000     ................
800026e4:	000001ff f8000000 00000000 00000000     ................
	...
800026fc:	7fffffff ffffffff ffffff80 003fffff     ..............?.
8000270c:	ffffffff fffffffe 00000000 00000000     ................
	...
80002724:	000001ff fe000000 00000000 00000000     ................
80002734:	0000007f fc000000 00000000 00000000     ................
	...
8000274c:	7fffffff ffffffff ffffff80 003fffff     ..............?.
8000275c:	ffffffff fffffffe 00000000 00000000     ................
	...
80002774:	000003ff f8000000 00000000 00000000     ................
80002784:	0000001f fe000000 00000000 00000000     ................
	...
8000279c:	7fffffff ffffffff ffffff80 003fffff     ..............?.
800027ac:	ffffffff fffffffe 00000000 00000000     ................
	...
800027c4:	000007ff e0000000 00000000 00000000     ................
800027d4:	0000000f ff000000 00000000 00000000     ................
	...
800027ec:	7fffffff ffffffff ffffff80 003fffff     ..............?.
800027fc:	ffffffff fffffffe 00000000 00000000     ................
	...
80002814:	00001fff 80000000 00000000 00000000     ................
80002824:	00000003 ffc00000 00000000 00000000     ................
	...
8000283c:	7fffffff ffffffff ffffff80 003fffff     ..............?.
8000284c:	ffffffff fffffffe 00000000 00000000     ................
	...
80002864:	00003ffe 00000000 00000000 00000000     .?..............
80002874:	00000001 ffe00000 00000000 00000000     ................
	...
8000288c:	7fffffff ffffffff ffffff80 003fffff     ..............?.
8000289c:	ffffffff fffffffe 00000000 00000000     ................
	...
800028b4:	00007ff8 00000000 00000000 00000000     ................
800028c4:	00000000 fff00000 00000000 00000000     ................
	...
800028dc:	7fffffff ffffffff ffffff80 003fffff     ..............?.
800028ec:	ffffffff fffffffe 00000000 00000000     ................
	...
80002904:	0001fff0 00000000 00000000 00000000     ................
80002914:	00000001 fff80000 00000000 00000000     ................
	...
8000292c:	7fffffff ffffffff ffffff80 003fffff     ..............?.
8000293c:	ffffffff fffffffe 00000000 00000000     ................
	...
80002954:	0003ffc0 00000000 00000000 00000000     ................
80002964:	00000001 fffc0000 00000000 00000000     ................
	...
8000297c:	7fffffff ffffffff ffffff80 003fffff     ..............?.
8000298c:	ffffffff fffffffe 00000000 00000000     ................
	...
800029a4:	0007ff80 00000000 00000000 00000000     ................
800029b4:	00000001 cffe0000 00000000 00000000     ................
	...
800029cc:	7fffffff ffffffff ffffff80 003fffff     ..............?.
800029dc:	ffffffff fffffffe 00000000 00000000     ................
	...
800029f4:	000ffe00 00000000 00000000 00000000     ................
80002a04:	00000003 c7ff0000 00000000 00000000     ................
	...
80002a1c:	7fffffff ffffffff ffffff80 003fffff     ..............?.
80002a2c:	ffffffff fffffffe 00000000 00000000     ................
	...
80002a44:	001ffc00 00000000 00000000 00000000     ................
80002a54:	00000003 c3ff0000 00000000 00000000     ................
	...
80002a6c:	7fffffff ffffffff ffffff80 003fffff     ..............?.
80002a7c:	ffffffff fffffffe 00000000 00000000     ................
	...
80002a94:	003ff800 00000000 00000000 00000000     ..?.............
80002aa4:	00000003 81ff8000 00000000 00000000     ................
	...
80002abc:	7fffffff ffffffff ffffff80 003fffff     ..............?.
80002acc:	ffffffff fffffffe 00000000 00000000     ................
	...
80002ae4:	007ff000 00000000 00000000 00000000     ................
80002af4:	00000007 80ffc000 00000000 00000000     ................
	...
80002b0c:	7fffffff ffffffff ffffff80 003fffff     ..............?.
80002b1c:	ffffffff fffffffe 00000000 00000000     ................
	...
80002b34:	00ffe000 00000000 00000000 00000000     ................
80002b44:	00000007 007fe000 00000000 00000000     ................
	...
80002b5c:	7fffffff ffffffff ffffff80 003fffff     ..............?.
80002b6c:	ffffffff fffffffe 00000000 00000000     ................
	...
80002b84:	00ffc000 00000000 00000000 00000000     ................
80002b94:	00000007 003ff000 00000000 00000000     ......?.........
	...
80002bac:	7fffffff ffffffff ffffff80 003fffff     ..............?.
80002bbc:	ffffffff fffffffe 00000000 00000000     ................
	...
80002bd4:	01ff0000 00000000 00000000 00000000     ................
80002be4:	00000007 801ff800 00000000 00000000     ................
	...
80002bfc:	7fffffff ffffffff ffffff80 003fffff     ..............?.
80002c0c:	ffffffff fffffffe 00000000 00000000     ................
	...
80002c24:	03fe0000 00000000 00000000 00000000     ................
80002c34:	00000007 800ff800 00000000 00000000     ................
	...
80002c4c:	7fffffff ffffffff ffffff80 003fffff     ..............?.
80002c5c:	ffffffff fffffffe 00000000 00000000     ................
	...
80002c74:	07fe0000 00000000 00000000 00000000     ................
80002c84:	00000003 c007fc00 00000000 00000000     ................
	...
80002c9c:	7fffffff ffffffff ffffff80 003fffff     ..............?.
80002cac:	ffffffff fffffffe 00000000 00000000     ................
	...
80002cc4:	0ffc0000 00000000 00000000 00000000     ................
80002cd4:	00000003 c003fe00 00000000 00000000     ................
	...
80002cec:	7fffffff ffffffff ffffff80 003fffff     ..............?.
80002cfc:	ffffffff fffffffe 00000000 00000000     ................
	...
80002d14:	0ff80000 00000000 00000000 00000000     ................
80002d24:	00000001 f803fe00 00000000 00000000     ................
	...
80002d3c:	7fffffff ffffffff ffffff80 003fffff     ..............?.
80002d4c:	ffffffff fffffffe 00000000 00000000     ................
	...
80002d64:	1ff00000 00000000 00000000 00000000     ................
80002d74:	00000001 cc01ff00 00000000 00000000     ................
	...
80002d8c:	7fffffff ffffffff ffffff80 003fffff     ..............?.
80002d9c:	ffffffff fffffffe 00000000 00000000     ................
	...
80002db4:	3fe00000 00000000 00000000 00000000     ...?............
80002dc4:	00000003 c400ff80 00000000 00000000     ................
	...
80002ddc:	7fffffff ffffffff ffffff80 003fffff     ..............?.
80002dec:	ffffffff fffffffe 00000000 00000000     ................
	...
80002e04:	3fc00000 00000000 00000000 00000000     ...?............
80002e14:	00000007 83007f80 00000000 00000000     ................
	...
80002e2c:	7fffffff ffffffff ffffff80 003fffff     ..............?.
80002e3c:	ffffffff fffffffe 00000000 00000000     ................
	...
80002e54:	7fc00000 00000000 00000000 00000000     ................
80002e64:	00000007 01807fc0 00000000 00000000     ................
	...
80002e7c:	7fffffff ffffffff ffffff80 003fffff     ..............?.
80002e8c:	ffffffff fffffffe 00000000 00000000     ................
	...
80002ea4:	ff800000 00000000 00000000 00000000     ................
80002eb4:	00000007 00603fe0 00000000 00000000     .....?`.........
	...
80002ecc:	7fffffff ffffffff ffffff80 003fffff     ..............?.
80002edc:	ffffffff fffffffe 00000000 00000000     ................
	...
80002ef4:	ff000000 00000000 00000000 00000000     ................
80002f04:	00000007 00301fe0 00000000 00000000     ......0.........
	...
80002f1c:	7fffffff ffffffff ffffff80 003fffff     ..............?.
80002f2c:	ffffffff fffffffe 00000000 00000000     ................
80002f3c:	00000000 00000001 ff000000 00000000     ................
	...
80002f54:	00000007 00101ff0 00000000 00000000     ................
	...
80002f6c:	7fffffff ffffffff ffffff80 003fffff     ..............?.
80002f7c:	ffffffff fffffffe 00000000 00000000     ................
80002f8c:	00000000 00000001 fe000000 00000000     ................
	...
80002fa4:	00000007 00100ff0 00000000 00000000     ................
	...
80002fbc:	7fffffff ffffffff ffffff80 003fffff     ..............?.
80002fcc:	ffffffff fffffffe 00000000 00000000     ................
80002fdc:	00000000 00000003 fc000000 00000000     ................
	...
80002ff4:	00000007 00000ff8 00000000 00000000     ................
	...
8000300c:	7fffffff ffffffff ffffff80 003fffff     ..............?.
8000301c:	ffffffff fffffffe 00000000 00000000     ................
8000302c:	00000000 00000003 fc000000 00000000     ................
	...
80003044:	00000007 000807f8 00000000 00000000     ................
	...
8000305c:	7fffffff ffffffff ffffff80 003fffff     ..............?.
8000306c:	ffffffff fffffffe 00000000 00000000     ................
8000307c:	00000000 00000007 f8000000 00000000     ................
	...
80003094:	00000007 000003fc 00000000 00000000     ................
	...
800030ac:	7fffffff ffffffff ffffff80 003fffff     ..............?.
800030bc:	ffffffff fffffffe 00000000 00000000     ................
800030cc:	00000000 0000000f f8000000 00000000     ................
	...
800030e4:	00000007 000003fc 00000000 00000000     ................
	...
800030fc:	7fffffff ffffffff ffffff80 003fffff     ..............?.
8000310c:	ffffffff fffffffe 00000000 00000000     ................
8000311c:	00000000 0000000f f0000000 00000000     ................
	...
80003134:	00000007 000001fe 00000000 00000000     ................
	...
8000314c:	7fffffff ffffffff ffffff80 003fffff     ..............?.
8000315c:	ffffffff fffffffe 00000000 00000000     ................
8000316c:	00000000 0000000f f0000000 00000000     ................
	...
80003184:	00000007 000001fe 00000000 00000000     ................
	...
8000319c:	7fffffff ffffffff ffffff80 003fffff     ..............?.
800031ac:	ffffffff fffffffe 00000000 00000000     ................
800031bc:	00000000 0000001f e0000000 00000000     ................
	...
800031d4:	00000007 000000ff 00000000 00000000     ................
	...
800031ec:	7fffffff ffffffff ffffff80 003fffff     ..............?.
800031fc:	ffffffff fffffffe 00000000 00000000     ................
8000320c:	00000000 0000001f e0000000 00000000     ................
	...
80003224:	00000007 000000ff 00000000 00000000     ................
	...
8000323c:	7fffffff ffffffff ffffff80 003fffff     ..............?.
8000324c:	ffffffff fffffffe 00000000 00000000     ................
8000325c:	00000000 0000003f c0000000 00000000     ....?...........
	...
80003274:	0000000f 0000007f 80000000 00000000     ................
	...
8000328c:	7fffffff ffffffff ffffff80 003fffff     ..............?.
8000329c:	ffffffff fffffffe 00000000 00000000     ................
800032ac:	00000000 0000003f c0000000 00000000     ....?...........
	...
800032c4:	0000000e 0000007f 80000000 00000000     ................
	...
800032dc:	7fffffff ffffffff ffffff80 003fffff     ..............?.
800032ec:	ffffffff fffffffe 00000000 00000000     ................
800032fc:	00000000 0000007f 80000000 00000000     ................
	...
80003314:	0000000e 0000003f 80000000 00000000     ....?...........
	...
8000332c:	7fffffff ffffffff ffffff80 003fffff     ..............?.
8000333c:	ffffffff fffffffe 00000000 00000000     ................
8000334c:	00000000 0000007f 80000000 00000000     ................
	...
80003364:	0000000e 0000003f c0000000 00000000     ....?...........
	...
8000337c:	7fffffff ffffffff ffffff80 003fffff     ..............?.
8000338c:	ffffffff fffffffe 00000000 00000000     ................
8000339c:	00000000 0000007f 00000000 00000000     ................
	...
800033b4:	0000000e 0000003f c0000000 00000000     ....?...........
	...
800033cc:	7fffffff ffffffff ffffff80 003fffff     ..............?.
800033dc:	ffffffff fffffffe 00000000 00000000     ................
800033ec:	00000000 000000ff 00000000 00000000     ................
	...
80003404:	0000000e 0000001f e0000000 00000000     ................
	...
8000341c:	7fffffff ffffffff ffffff80 003fffff     ..............?.
8000342c:	ffffffff fffffffe 00000000 00000000     ................
8000343c:	00000000 000000ff 00000000 00000000     ................
	...
80003454:	0000001e 0000001f e0000000 00000000     ................
	...
8000346c:	7fffffff ffffffff ffffff80 003fffff     ..............?.
8000347c:	ffffffff fffffffe 00000000 00000000     ................
8000348c:	00000000 000000fe 00000000 00000000     ................
	...
800034a4:	0000007e 0000000f e0000000 00000000     ~...............
	...
800034bc:	7fffffff ffffffff ffffff80 003fffff     ..............?.
800034cc:	ffffffff fffffffe 00000000 00000000     ................
800034dc:	00000000 000001fe 00000000 00000000     ................
	...
800034f4:	000001ff 0000000f f0000000 00000000     ................
	...
8000350c:	7fffffff ffffffff ffffff80 003fffff     ..............?.
8000351c:	ffffffff fffffffe 00000000 00000000     ................
8000352c:	00000000 000001fe 00000000 00000000     ................
	...
80003544:	000607f1 0000000f f0000000 00000000     ................
	...
8000355c:	7fffffff ffffffff ffffff80 003fffff     ..............?.
8000356c:	ffffffff fffffffe 00000000 00000000     ................
8000357c:	00000000 000001fc 00000000 00000000     ................
	...
80003594:	001f1fc1 00000007 f8000000 00000000     ................
	...
800035ac:	7fffffff ffffffff ffffff80 003fffff     ..............?.
800035bc:	ffffffff fffffffe 00000000 00000000     ................
800035cc:	00000000 000003fc 00000000 00000000     ................
	...
800035e4:	0030fe01 80000007 f8000000 00000000     ..0.............
	...
800035fc:	7fffffff ffffffff ffffff80 003fffff     ..............?.
8000360c:	ffffffff fffffffe 00000000 00000000     ................
8000361c:	00000000 000003fc 00000000 00000000     ................
	...
80003634:	00607800 c0000003 f8000000 00000000     .x`.............
	...
8000364c:	7fffffff ffffffff ffffff80 003fffff     ..............?.
8000365c:	ffffffff fffffffe 00000000 00000000     ................
8000366c:	00000000 000003f8 00000000 00000000     ................
	...
80003684:	03803800 20000003 fc000000 00000000     .8..... ........
	...
8000369c:	7fffffff ffffffff ffffff80 003fffff     ..............?.
800036ac:	ffffffff fffffffe 00000000 00000000     ................
800036bc:	00000000 000003f8 00000080 00000000     ................
	...
800036d4:	00007000 20000003 fc000000 00000000     .p..... ........
	...
800036ec:	7fffffff ffffffff ffffff80 003fffff     ..............?.
800036fc:	ffffffff fffffffe 00000000 00000000     ................
8000370c:	00000000 000007f8 00000100 00000000     ................
	...
80003724:	00007000 20000001 fc000000 00000000     .p..... ........
	...
8000373c:	7fffffff ffffffff ffffff80 003fffff     ..............?.
8000374c:	ffffffff fffffffe 00000000 00000000     ................
8000375c:	00000000 000007f8 00800100 00000000     ................
	...
80003774:	00007000 00000001 fc000000 00000000     .p..............
	...
8000378c:	7fffffff ffffffff ffffff80 003fffff     ..............?.
8000379c:	ffffffff fffffffe 00000000 00000000     ................
800037ac:	00000000 000007f0 00800100 00000000     ................
	...
800037c4:	0000e000 00000001 fe000000 00000000     ................
	...
800037dc:	7fffffff ffffffff ffffff80 003fffff     ..............?.
800037ec:	ffffffff fffffffe 00000000 00000000     ................
800037fc:	00000000 00000ff0 00800100 00000000     ................
	...
80003814:	0000e000 00000001 fe000000 00000000     ................
	...
8000382c:	7fffffff ffffffff ffffff80 003fffff     ..............?.
8000383c:	ffffffff fffffffe 00000000 00000000     ................
8000384c:	00000000 00000ff0 00800300 00000000     ................
	...
80003864:	0001c000 00000000 fe000000 00000000     ................
	...
8000387c:	7fffffff ffffffff ffffff80 003fffff     ..............?.
8000388c:	ffffffff fffffffe 00000000 00000000     ................
8000389c:	00000000 00000fe0 00800200 00000000     ................
	...
800038b4:	0001c000 00000000 ff000000 00000000     ................
	...
800038cc:	7fffffff ffffffff ffffff80 003fffff     ..............?.
800038dc:	ffffffff fffffffe 00000000 00000000     ................
800038ec:	00000000 00000fe0 00800200 00000000     ................
	...
80003904:	00018000 00000000 ff000000 00000000     ................
	...
8000391c:	7fffffff ffffffff ffffff80 003fffff     ..............?.
8000392c:	ffffffff fffffffe 00000000 00000000     ................
8000393c:	00000000 00000fe0 00800600 00000000     ................
	...
80003954:	00038000 00000000 7f000000 00000000     ................
	...
8000396c:	7fffffff ffffffff ffffff80 003fffff     ..............?.
8000397c:	ffffffff fffffffe 00000000 00000000     ................
8000398c:	00000000 00001fe0 00800400 00000000     ................
	...
800039a4:	00030000 00000000 7f000000 00000000     ................
	...
800039bc:	7fffffff ffffffff ffffff80 003fffff     ..............?.
800039cc:	ffffffff fffffffe 00000000 00000000     ................
800039dc:	00000000 00001fe0 00c00c00 00000000     ................
	...
800039f4:	00070000 00000000 7f800000 00000000     ................
	...
80003a0c:	7fffffff ffffffff ffffff80 003fffff     ..............?.
80003a1c:	ffffffff fffffffe 00000000 00000000     ................
80003a2c:	00000000 00001fc0 00400c00 00000000     ..........@.....
	...
80003a44:	000e0000 00000000 7f800000 00000000     ................
	...
80003a5c:	7fffffff ffffffff ffffff80 003fffff     ..............?.
80003a6c:	ffffffff fffffffe 00000000 00000000     ................
80003a7c:	00000000 00001fc0 00201800 00000000     .......... .....
	...
80003a94:	001e0000 00000000 3f800000 00000000     ...........?....
	...
80003aac:	7fffffff ffffffff ffffff80 003fffff     ..............?.
80003abc:	ffffffff fffffffe 00000000 00000000     ................
80003acc:	00000000 00001fc0 00207000 00000000     .........p .....
	...
80003ae4:	03fc0000 00000000 3f800000 00000000     ...........?....
	...
80003afc:	7fffffff ffffffff ffffff80 003fffff     ..............?.
80003b0c:	ffffffff fffffffe 00000000 00000000     ................
80003b1c:	00000000 00003fc0 0023e000 00000000     .....?....#.....
	...
80003b34:	0ff00000 00000000 3fc00000 00000000     ...........?....
	...
80003b4c:	7fffffff ffffffff ffffff80 003fffff     ..............?.
80003b5c:	ffffffff fffffffe 00000000 00000000     ................
80003b6c:	00000000 00003fc0 003f8000 00000000     .....?....?.....
	...
80003b84:	3f800000 00000000 3fc00000 00000000     ...?.......?....
	...
80003b9c:	7fffffff ffffffff ffffff80 003fffff     ..............?.
80003bac:	ffffffff fffffffe 00000000 00000000     ................
80003bbc:	00000000 00003f80 000c0000 00000000     .....?..........
	...
80003bd4:	78000000 00000000 1fc00000 00000000     ...x............
	...
80003bec:	7fffffff ffffffff ffffff80 003fffff     ..............?.
80003bfc:	ffffffff fffffffe 00000000 00000000     ................
80003c0c:	00000000 00003f80 000c0000 00000000     .....?..........
	...
80003c24:	60000000 00000000 1fc00000 00000000     ...`............
	...
80003c3c:	7fffffff ffffffff ffffff80 003fffff     ..............?.
80003c4c:	ffffffff fffffffe 00000000 00000000     ................
80003c5c:	00000000 00003f80 000c0000 00000000     .....?..........
	...
80003c74:	e0000000 00000000 1fc00000 00000000     ................
	...
80003c8c:	7fffffff ffffffff ffffff80 003fffff     ..............?.
80003c9c:	ffffffff fffffffe 00000000 00000000     ................
80003cac:	00000000 00003f80 000c0000 00000000     .....?..........
	...
80003cc4:	c0000000 00000000 1fe00000 00000000     ................
	...
80003cdc:	7fffffff ffffffff ffffff80 003fffff     ..............?.
80003cec:	ffffffff fffffffe 00000000 00000000     ................
80003cfc:	00000000 00007f80 000c0000 00000000     ................
80003d0c:	00000000 00000001 80000000 00000000     ................
80003d1c:	1fe00000 00000000 00000000 00000000     ................
80003d2c:	7fffffff ffffffff ffffff80 003fffff     ..............?.
80003d3c:	ffffffff fffffffe 00000000 00000000     ................
80003d4c:	00000000 00007f80 00060000 00000000     ................
80003d5c:	00000000 00000001 80000000 00000000     ................
80003d6c:	0fe00000 00000000 00000000 00000000     ................
80003d7c:	7fffffff ffffffff ffffff80 003fffff     ..............?.
80003d8c:	ffffffff fffffffe 00000000 00000000     ................
80003d9c:	00000000 00007f80 000e0000 00000000     ................
80003dac:	00000000 00000003 80000000 00000000     ................
80003dbc:	0fe00000 00000000 00000000 00000000     ................
80003dcc:	7fffffff ffffffff ffffff80 003fffff     ..............?.
80003ddc:	ffffffff fffffffe 00000000 00000000     ................
80003dec:	00000000 00007f00 000c0000 00000000     ................
80003dfc:	00000000 00000003 c0000000 00000000     ................
80003e0c:	0fe00000 00000000 00000000 00000000     ................
80003e1c:	7fffffff ffffffff ffffff80 003fffff     ..............?.
80003e2c:	ffffffff fffffffe 00000000 00000000     ................
80003e3c:	00000000 00007f00 080c0000 00000000     ................
80003e4c:	00000000 0000000e 40000000 00000000     ...........@....
80003e5c:	0fe00000 00000000 00000000 00000000     ................
80003e6c:	7fffffff ffffffff ffffff80 003fffff     ..............?.
80003e7c:	ffffffff fffffffe 00000000 00000000     ................
80003e8c:	00000000 00007f00 000c0000 00000000     ................
80003e9c:	00000000 000000fc 40000000 00000000     ...........@....
80003eac:	0ff00000 00000000 00000000 00000000     ................
80003ebc:	7fffffff ffffffff ffffff80 003fffff     ..............?.
80003ecc:	ffffffff fffffffe 00000000 00000000     ................
80003edc:	00000000 00007f00 100c0000 00000000     ................
80003eec:	00000000 00000ff0 40000000 00000000     ...........@....
80003efc:	0ff00000 00000000 00000000 00000000     ................
80003f0c:	7fffffff ffffffff ffffff80 003fffff     ..............?.
80003f1c:	ffffffff fffffffe 00000000 00000000     ................
80003f2c:	00000000 00007f00 100c0000 00000000     ................
80003f3c:	00000000 00003e00 40000000 00000000     .....>.....@....
80003f4c:	07f00000 00000000 00000000 00000000     ................
80003f5c:	7fffffff ffffffff ffffff80 003fffff     ..............?.
80003f6c:	ffffffff fffffffe 00000000 00000000     ................
80003f7c:	00000000 00007f00 100c0020 00000000     ........ .......
80003f8c:	00000000 00007000 20000000 00000000     .....p..... ....
80003f9c:	07f00000 00000000 00000000 00000000     ................
80003fac:	7fffffff ffffffff ffffff80 003fffff     ..............?.
80003fbc:	ffffffff fffffffe 00000000 00000000     ................
80003fcc:	00000000 0000ff00 100c0020 00000000     ........ .......
80003fdc:	00000000 00006000 20000000 00000000     .....`..... ....
80003fec:	07f00000 00000000 00000000 00000000     ................
80003ffc:	7fffffff ffffffff ffffff80 003fffff     ..............?.
8000400c:	ffffffff fffffffe 00000000 00000000     ................
8000401c:	00000000 0000ff00 300c0000 00000000     ...........0....
8000402c:	00000000 0000c000 20000000 00000200     ........... ....
8000403c:	07f00000 00000000 00000000 00000000     ................
8000404c:	7fffffff ffffffff ffffff80 003fffff     ..............?.
8000405c:	ffffffff fffffffe 00000000 00000000     ................
8000406c:	00000000 0000ff00 300c0040 00000000     ........@..0....
8000407c:	00000000 0000c000 20000000 00000200     ........... ....
8000408c:	07f80000 00000000 00000000 00000000     ................
8000409c:	7fffffff ffffffff ffffff80 003fffff     ..............?.
800040ac:	ffffffff fffffffe 00000000 00000000     ................
800040bc:	00000000 0000fe00 200c0040 00000000     ........@.. ....
800040cc:	00000000 0000c000 20000000 00000100     ........... ....
800040dc:	07f80000 00000000 00000000 00000000     ................
800040ec:	7fffffff ffffffff ffffff80 003fffff     ..............?.
800040fc:	ffffffff fffffffe 00000000 00000000     ................
8000410c:	00000000 0000fe00 200c0040 00000000     ........@.. ....
8000411c:	00000000 00008000 20000000 00000100     ........... ....
8000412c:	07f80000 00000000 00000000 00000000     ................
8000413c:	7fffffff ffffffff ffffff80 003fffff     ..............?.
8000414c:	ffffffff fffffffe 00000000 00000000     ................
8000415c:	00000000 0000fe00 200c0040 00000000     ........@.. ....
8000416c:	00000000 00008000 20000000 00000100     ........... ....
8000417c:	03f80000 00000000 00000000 00000000     ................
8000418c:	7fffffff ffffffff ffffff80 003fffff     ..............?.
8000419c:	ffffffff fffffffe 00000000 00000000     ................
800041ac:	00000000 0000fe00 600c0040 00000000     ........@..`....
800041bc:	00000000 00008000 20000000 00000100     ........... ....
800041cc:	03f80000 00000000 00000000 00000000     ................
800041dc:	7fffffff ffffffff ffffff80 003fffff     ..............?.
800041ec:	ffffffff fffffffe 00000000 00000000     ................
800041fc:	00000000 0000fe00 600e0040 00000000     ........@..`....
8000420c:	00000000 00018000 10000000 00000180     ................
8000421c:	03f80000 00000000 00000000 00000000     ................
8000422c:	7fffffff ffffffff ffffff80 003fffff     ..............?.
8000423c:	ffffffff fffffffe 00000000 00000000     ................
8000424c:	00000000 0000fe00 600e0040 00000000     ........@..`....
8000425c:	00000000 00030000 08000000 00000180     ................
8000426c:	03f80000 00000000 00000000 00000000     ................
8000427c:	7fffffff ffffffff ffffff80 003fffff     ..............?.
8000428c:	ffffffff fffffffe 00000000 00000000     ................
8000429c:	00000000 0000fe00 600600c0 00000000     ...........`....
800042ac:	00000000 00020000 04000000 00000180     ................
800042bc:	03f80000 00000000 00000000 00000000     ................
800042cc:	7fffffff ffffffff ffffff80 003fffff     ..............?.
800042dc:	ffffffff fffffffe 00000000 00000000     ................
800042ec:	00000000 0000fe00 e0071f00 00000000     ................
800042fc:	00000000 00060000 00000000 000001c0     ................
8000430c:	03f80000 00000000 00000000 00000000     ................
8000431c:	7fffffff ffffffff ffffff80 003fffff     ..............?.
8000432c:	ffffffff fffffffe 00000000 00000000     ................
8000433c:	00000000 0000fe00 e0073000 00000000     .........0......
8000434c:	00000000 000c0000 02000000 000000c0     ................
8000435c:	03f80000 00000000 00000000 00000000     ................
8000436c:	7fffffff ffffffff ffffff80 003fffff     ..............?.
8000437c:	ffffffff fffffffe 00000000 00000000     ................
8000438c:	00000000 0000fe00 c0036000 00000000     .........`......
8000439c:	00000000 00180000 02000000 000000c0     ................
800043ac:	03fc0000 00000000 00000000 00000000     ................
800043bc:	7fffffff ffffffff ffffff80 003fffff     ..............?.
800043cc:	ffffffff fffffffe 00000000 00000000     ................
800043dc:	00000000 0001fe00 c007c000 00000000     ................
800043ec:	00000000 00200000 00000000 000000c0     ...... .........
800043fc:	03fc0000 00000000 00000000 00000000     ................
8000440c:	7fffffff ffffffff ffffff80 003fffff     ..............?.
8000441c:	ffffffff fffffffe 00000000 00000000     ................
8000442c:	00000000 0001fe00 c00f8000 00000000     ................
8000443c:	00000000 00400000 00000000 000000e0     ......@.........
8000444c:	03fc0000 00000000 00000000 00000000     ................
8000445c:	7fffffff ffffffff ffffff80 003fffff     ..............?.
8000446c:	ffffffff fffffffe 00000000 00000000     ................
8000447c:	00000000 0001fe00 c03e0000 00000000     ..........>.....
8000448c:	00000000 00800000 00000000 000000e0     ................
8000449c:	01fc0000 00000000 00000000 00000000     ................
800044ac:	7fffffff ffffffff ffffff80 003fffff     ..............?.
800044bc:	ffffffff fffffffe 00000000 00000000     ................
800044cc:	00000000 0001fe01 c07c0000 00000000     ..........|.....
800044dc:	00000000 01000000 00000000 000000e0     ................
800044ec:	01fc0000 00000000 00000000 00000000     ................
800044fc:	7fffffff ffffffff ffffff80 003fffff     ..............?.
8000450c:	ffffffff fffffffe 00000000 00000000     ................
8000451c:	00000000 0001fe01 c0f00000 00000000     ................
8000452c:	00000000 02000000 00000000 000000e0     ................
8000453c:	01fc0000 00000000 00000000 00000000     ................
8000454c:	7fffffff ffffffff ffffff80 003fffff     ..............?.
8000455c:	ffffffff fffffffe 00000000 00000000     ................
8000456c:	00000000 0001fe01 c0e00000 00000000     ................
8000457c:	00000000 04000000 00000000 000000e0     ................
8000458c:	01fc0000 00000000 00000000 00000000     ................
8000459c:	7fffffff ffffffff ffffff80 003fffff     ..............?.
800045ac:	ffffffff fffffffe 00000000 00000000     ................
800045bc:	00000000 0001fe01 c0e00000 00000000     ................
	...
800045d8:	000000e0 01fc0000 00000000 00000000     ................
800045e8:	00000000 7fffffff ffffffff ffffff80     ................
800045f8:	003fffff ffffffff fffffffe 00000000     ..?.............
	...
80004610:	0001fe01 c1c00000 00000000 00000000     ................
	...
80004628:	000000e0 01fc0000 00000000 00000000     ................
80004638:	00000000 7fffffff ffffffff ffffff80     ................
80004648:	003fffff ffffffff fffffffe 00000000     ..?.............
	...
80004660:	0001fc01 c1c00000 00000000 00000000     ................
	...
80004678:	000000f0 01fc0000 00000000 00000000     ................
80004688:	00000000 7fffffff ffffffff ffffff80     ................
80004698:	003fffff ffffffff fffffffe 00000000     ..?.............
	...
800046b0:	0001fc01 c1c00000 00000000 00000000     ................
	...
800046c8:	000000f0 01fc0000 00000000 00000000     ................
800046d8:	00000000 7fffffff ffffffff ffffff80     ................
800046e8:	003fffff ffffffff fffffffe 00000000     ..?.............
	...
80004700:	0001fc01 c7c00000 00000000 00000000     ................
	...
80004718:	000000f0 01fc0000 00000000 00000000     ................
80004728:	00000000 7fffffff ffffffff ffffff80     ................
80004738:	003fffff ffffffff fffffffe 00000000     ..?.............
	...
80004750:	0001fc01 df800000 00000000 00000000     ................
	...
80004768:	000000f0 01fc0000 00000000 00000000     ................
80004778:	00000000 7fffffff ffffffff ffffff80     ................
80004788:	003fffff ffffffff fffffffe 00000000     ..?.............
	...
800047a0:	0001fc01 ff000000 00000000 00000000     ................
	...
800047b8:	000000f0 01fc0000 00000000 00000000     ................
800047c8:	00000000 7fffffff ffffffff ffffff80     ................
800047d8:	003fffff ffffffff fffffffe 00000000     ..?.............
	...
800047f0:	0001fc03 fc000000 00000000 00000000     ................
	...
80004808:	000000f0 01fc0000 00000000 00000000     ................
80004818:	00000000 7fffffff ffffffff ffffff80     ................
80004828:	003fffff ffffffff fffffffe 00000000     ..?.............
	...
80004840:	0001fc07 f0000000 00000000 00000000     ................
	...
80004858:	000000f0 01fc0000 00000000 00000000     ................
80004868:	00000000 7fffffff ffffffff ffffff80     ................
80004878:	003fffff ffffffff fffffffe 00000000     ..?.............
	...
80004890:	0001fc07 e0000000 00000000 00000000     ................
	...
800048a8:	000000f0 01fe0000 00000000 00000000     ................
800048b8:	00000000 7fffffff ffffffff ffffff80     ................
800048c8:	003fffff ffffffff fffffffe 00000000     ..?.............
	...
800048e0:	0001fc0f e0000000 00000000 00000000     ................
	...
800048f8:	3f0000f0 01fe0000 00000000 00000000     ...?............
80004908:	00000000 7fffffff ffffffff ffffff80     ................
80004918:	003fffff ffffffff fffffffe 00000000     ..?.............
	...
80004930:	0001fc0f e0000000 00000000 00000000     ................
80004940:	00000000 0000000f fffc00f0 01fe0000     ................
	...
8000495c:	7fffffff ffffffff ffffff80 003fffff     ..............?.
8000496c:	ffffffff fffffffe 00000000 00000000     ................
8000497c:	00000000 0001fc07 e000007f c0000000     ................
	...
80004994:	000000ff ffff80f0 01fe0000 00000000     ................
	...
800049ac:	7fffffff ffffffff ffffff80 003fffff     ..............?.
800049bc:	ffffffff fffffffe 00000000 00000000     ................
800049cc:	00000000 0001fc0f e0000fff fc000000     ................
	...
800049e4:	000003f8 003fe0f0 01fe0000 00000000     ......?.........
	...
800049fc:	7fffffff ffffffff ffffff80 003fffff     ..............?.
80004a0c:	ffffffff fffffffe 00000000 00000000     ................
80004a1c:	00000000 0001fc3f f000ffff ff000000     ....?...........
	...
80004a34:	00000f80 0003f8f0 01fe0000 00000000     ................
	...
80004a4c:	7fffffff ffffffff ffffff80 003fffff     ..............?.
80004a5c:	ffffffff fffffffe 00000000 00000000     ................
80004a6c:	00000000 0001fcfe f003fc00 03e00000     ................
	...
80004a84:	00003c00 0000fcf0 01fe0000 00000000     .<..............
	...
80004a9c:	7fffffff ffffffff ffffff80 003fffff     ..............?.
80004aac:	ffffffff fffffffe 00000000 00000000     ................
80004abc:	00000000 0001fdfc f01fe000 00700000     ..............p.
	...
80004ad4:	00006000 00003ef0 01fe0000 00000000     .`...>..........
	...
80004aec:	7fffffff ffffffff ffffff80 003fffff     ..............?.
80004afc:	ffffffff fffffffe 00000000 00000000     ................
80004b0c:	00000000 0001fff0 f07f0000 00180000     ................
	...
80004b24:	0001c000 00001ff0 01fe0000 00000000     ................
	...
80004b3c:	7fffffff ffffffff ffffff80 003fffff     ..............?.
80004b4c:	ffffffff fffffffe 00000000 00000000     ................
80004b5c:	00000000 0001ffc0 f0fc0000 00060000     ................
80004b6c:	00000000 00001c00 00030000 000007f8     ................
80004b7c:	01fe0000 00000000 00000000 00000000     ................
80004b8c:	7fffffff ffffffff ffffff80 003fffff     ..............?.
80004b9c:	ffffffff fffffffe 00000000 00000000     ................
80004bac:	00000000 0001ff80 f3f00000 00010000     ................
80004bbc:	00000000 0001f000 00060000 000003f8     ................
80004bcc:	01fe0000 00000000 00000000 00000000     ................
80004bdc:	7fffffff ffffffff ffffff80 003fffff     ..............?.
80004bec:	ffffffff fffffffe 00000000 00000000     ................
80004bfc:	00000000 0001ff81 f7c00000 00000000     ................
80004c0c:	08000000 00078000 000c0000 000001f8     ................
80004c1c:	01fe0000 00000000 00000000 00000000     ................
80004c2c:	7fffffff ffffffff ffffff80 003fffff     ..............?.
80004c3c:	ffffffff fffffffe 00000000 00000000     ................
80004c4c:	00000000 0001ff81 ff800000 00000000     ................
80004c5c:	06000000 001e0000 00000000 000001f8     ................
80004c6c:	01fe0000 00000000 00000000 00000000     ................
80004c7c:	7fffffff ffffffff ffffff80 003fffff     ..............?.
80004c8c:	ffffffff fffffffe 00000000 00000000     ................
80004c9c:	00000000 0001fc01 fe000000 00000000     ................
80004cac:	03800000 003c0000 00000000 000000fc     ......<.........
80004cbc:	01fe0000 00000000 00000000 00000000     ................
80004ccc:	7fffffff ffffffff ffffff80 003fffff     ..............?.
80004cdc:	ffffffff fffffffe 00000000 00000000     ................
80004cec:	00000000 0001fc01 fc000000 00000000     ................
80004cfc:	01c00000 00700000 00000000 0000007c     ......p.....|...
80004d0c:	00fe0000 00000000 00000000 00000000     ................
80004d1c:	7fffffff ffffffff ffffff80 003fffff     ..............?.
80004d2c:	ffffffff fffffffe 00000000 00000000     ................
80004d3c:	00000000 0001fc03 f8000000 00000000     ................
80004d4c:	00e00000 00700000 00000000 0000007e     ......p.....~...
80004d5c:	00fe0000 00000000 00000000 00000000     ................
80004d6c:	7fffffff ffffffff ffffff80 003fffff     ..............?.
80004d7c:	ffffffff fffffffe 00000000 00000000     ................
80004d8c:	00000000 0001fc03 f0000000 08000000     ................
80004d9c:	00700000 00e00000 00000000 0000003e     ..p.........>...
80004dac:	00fe0000 00000000 00000000 00000000     ................
80004dbc:	7fffffff ffffffff ffffff80 003fffff     ..............?.
80004dcc:	ffffffff fffffffe 00000000 00000000     ................
80004ddc:	00000000 0001fc07 e0000000 08000000     ................
80004dec:	00380000 01c00000 00000000 0000001f     ..8.............
80004dfc:	00fe0000 00000000 00000000 00000000     ................
80004e0c:	7fffffff ffffffff ffffff80 003fffff     ..............?.
80004e1c:	ffffffff fffffffe 00000000 00000000     ................
80004e2c:	00000000 0001fc07 c0000000 0c000000     ................
80004e3c:	00180000 01800000 00000000 0000001f     ................
80004e4c:	00fe0000 00000000 00000000 00000000     ................
80004e5c:	7fffffff ffffffff ffffff80 003fffff     ..............?.
80004e6c:	ffffffff fffffffe 00000000 00000000     ................
80004e7c:	00000000 0001fc0f 80000000 0c000000     ................
80004e8c:	001c0000 03800000 00000000 0000000f     ................
80004e9c:	80fe0000 00000000 00000000 00000000     ................
80004eac:	7fffffff ffffffff ffffff80 003fffff     ..............?.
80004ebc:	ffffffff fffffffe 00000000 00000000     ................
80004ecc:	00000000 0001fc0f 80000000 30000000     ...............0
80004edc:	000e0000 07000000 00000000 0000000f     ................
80004eec:	c0fe0000 00000000 00000000 00000000     ................
80004efc:	7fffffff ffffffff ffffff80 003fffff     ..............?.
80004f0c:	ffffffff fffffffe 00000000 00000000     ................
80004f1c:	00000000 0001fc1f 00000000 20000000     ............... 
80004f2c:	00070000 07000000 00000000 00000007     ................
80004f3c:	c0fe0000 00000000 00000000 00000000     ................
80004f4c:	7fffffff ffffffff ffffff80 003fffff     ..............?.
80004f5c:	ffffffff fffffffe 00000000 00000000     ................
80004f6c:	00000000 0001fc3f 00000000 20000000     ....?.......... 
80004f7c:	00070000 0e000000 00000000 00000003     ................
80004f8c:	e0fe0000 00000000 00000000 00000000     ................
80004f9c:	7fffffff ffffffff ffffff80 003fffff     ..............?.
80004fac:	ffffffff fffffffe 00000000 00000000     ................
80004fbc:	00000000 0001fc3e 00003ffc 20000000     ....>....?..... 
80004fcc:	00038000 1e000000 00000001 ffe00003     ................
80004fdc:	f0fe0000 00000000 00000000 00000000     ................
80004fec:	7fffffff ffffffff ffffff80 003fffff     ..............?.
80004ffc:	ffffffff fffffffe 00000000 00000000     ................
8000500c:	00000000 0001fc7e 0001ffff a0000000     ....~...........
8000501c:	0001c000 1c000000 0000000f fffc0001     ................
8000502c:	f8fe0000 00000000 00000000 00000000     ................
8000503c:	7fffffff ffffffff ffffff80 003fffff     ..............?.
8000504c:	ffffffff fffffffe 00000000 00000000     ................
8000505c:	00000000 0001fcfc 0007ffff e0000000     ................
8000506c:	0000e000 3c000000 0000003f ffff0001     .......<?.......
8000507c:	f8fe0000 00000000 00000000 00000000     ................
8000508c:	7fffffff ffffffff ffffff80 003fffff     ..............?.
8000509c:	ffffffff fffffffe 00000000 00000000     ................
800050ac:	00000000 0001fcfc 001fffff f8000000     ................
800050bc:	0000f000 78000000 000000ff ffffc000     .......x........
800050cc:	fcfe0000 00000000 00000000 00000000     ................
800050dc:	7fffffff ffffffff ffffff80 003fffff     ..............?.
800050ec:	ffffffff fffffffe 00000000 00000000     ................
800050fc:	00000000 0001fdf8 003fffff fc000000     ..........?.....
8000510c:	00007800 f8000000 000001ff ffffe000     .x..............
8000511c:	7efe0000 00000000 00000000 00000000     ...~............
8000512c:	7fffffff ffffffff ffffff80 003fffff     ..............?.
8000513c:	ffffffff fffffffe 00000000 00000000     ................
8000514c:	00000000 0001fff0 00ffffff fe000000     ................
8000515c:	00003e01 f0000000 000003ff fffff800     .>..............
8000516c:	7efe0000 00000000 00000000 00000000     ...~............
8000517c:	7fffffff ffffffff ffffff80 003fffff     ..............?.
8000518c:	ffffffff fffffffe 00000000 00000000     ................
8000519c:	00000000 0001fff0 01ffffff ff000000     ................
800051ac:	00001f87 e0000000 000007ff fffffc00     ................
800051bc:	3ffe0000 00000000 00000000 00000000     ...?............
800051cc:	7fffffff ffffffff ffffff80 003fffff     ..............?.
800051dc:	ffffffff fffffffe 00000000 00000000     ................
800051ec:	00000000 0001ffe0 03ffffff ff800000     ................
800051fc:	00000fff c0000000 00000fff fffffe00     ................
8000520c:	1ffe0000 00000000 00000000 00000000     ................
8000521c:	7fffffff ffffffff ffffff80 003fffff     ..............?.
8000522c:	ffffffff fffffffe 00000000 00000000     ................
8000523c:	00000000 0001ffc0 07ffffff ffc00000     ................
8000524c:	000003ff 80000000 00001fff ffffff00     ................
8000525c:	1ffe0000 00000000 00000000 00000000     ................
8000526c:	7fffffff ffffffff ffffff80 003fffff     ..............?.
8000527c:	ffffffff fffffffe 00000000 00000000     ................
8000528c:	00000000 0001ffc0 0fffffff ffe00000     ................
8000529c:	000001fe 00000000 00003fff ffffff80     .........?......
800052ac:	0ffe0000 00000000 00000000 00000000     ................
800052bc:	7fffffff ffffffff ffffff80 003fffff     ..............?.
800052cc:	ffffffff fffffffe 00000000 00000000     ................
800052dc:	00000000 0001ff80 1fffffff fff00000     ................
	...
800052f4:	00007fff ffffffc0 0ffe0000 00000000     ................
	...
8000530c:	7fffffff ffffffff ffffff80 003fffff     ..............?.
8000531c:	ffffffff fffffffe 00000000 00000000     ................
8000532c:	00000000 0001ff80 1fffffff fff80000     ................
	...
80005344:	0000ffff ffffffc0 07fe0000 00000000     ................
	...
8000535c:	7fffffff ffffffff ffffff80 003fffff     ..............?.
8000536c:	ffffffff fffffffe 00000000 00000000     ................
8000537c:	00000000 0001ff00 3fffffff f0fc0000     ...........?....
	...
80005394:	0001f87f ffffffe0 07fe0000 00000000     ................
	...
800053ac:	7fffffff ffffffff ffffff80 003fffff     ..............?.
800053bc:	ffffffff fffffffe 00000000 00000000     ................
800053cc:	00000000 0001ff00 7fffffff c07c0000     ..............|.
800053dc:	01000000 00000400 0001f00f fffffff0     ................
800053ec:	03fe0000 00000000 00000000 00000000     ................
800053fc:	7fffffff ffffffff ffffff80 003fffff     ..............?.
8000540c:	ffffffff fffffffe 00000000 00000000     ................
8000541c:	00000000 0003ff00 ffffffff 003e0000     ..............>.
8000542c:	00800000 00000800 0003e007 fffffff0     ................
8000543c:	03fe0000 00000000 00000000 00000000     ................
8000544c:	7fffffff ffffffff ffffff80 003fffff     ..............?.
8000545c:	ffffffff fffffffe 00000000 00000000     ................
8000546c:	00000000 0003fe00 fffffffc 001f0000     ................
8000547c:	00c00000 00001800 0007e003 fffffff8     ................
8000548c:	01ff0000 00000000 00000000 00000000     ................
8000549c:	7fffffff ffffffff ffffff80 003fffff     ..............?.
800054ac:	ffffffff fffffffe 00000000 00000000     ................
800054bc:	00000000 0003fe01 fffffff8 001f8000     ................
800054cc:	00c00000 00003000 0007c001 fffffff8     .....0..........
800054dc:	01ff0000 00000000 00000000 00000000     ................
800054ec:	7fffffff ffffffff ffffff80 003fffff     ..............?.
800054fc:	ffffffff fffffffe 00000000 00000000     ................
8000550c:	00000000 0003fc01 fffffff0 000f8000     ................
8000551c:	00600000 00003000 000f8000 fffffffc     ..`..0..........
8000552c:	00ff0000 00000000 00000000 00000000     ................
8000553c:	7fffffff ffffffff ffffff80 003fffff     ..............?.
8000554c:	ffffffff fffffffe 00000000 00000000     ................
8000555c:	00000000 0003fc01 fffffff0 000fc000     ................
8000556c:	00300000 0000e000 001f0000 7ffffffc     ..0.............
8000557c:	00ff0000 00000000 00000000 00000000     ................
8000558c:	7fffffff ffffffff ffffff80 003fffff     ..............?.
8000559c:	ffffffff fffffffe 00000000 00000000     ................
800055ac:	00000000 0007fc03 ffffffe0 0007c000     ................
800055bc:	00380000 0000e000 001f0000 3ffffffe     ..8............?
800055cc:	007f0000 00000000 00000000 00000000     ................
800055dc:	7fffffff ffffffff ffffff80 003fffff     ..............?.
800055ec:	ffffffff fffffffe 00000000 00000000     ................
800055fc:	00000000 0007f803 ffffffc0 0003e000     ................
8000560c:	001c0000 0001c000 003e0000 1ffffffe     ..........>.....
8000561c:	007f0000 00000000 00000000 00000000     ................
8000562c:	7fffffff ffffffff ffffff80 003fffff     ..............?.
8000563c:	ffffffff fffffffe 00000000 00000000     ................
8000564c:	00000000 0007f807 ffffffc0 0001f000     ................
8000565c:	001e0000 0003c000 003e0000 1ffffffe     ..........>.....
8000566c:	007f8000 00000000 00000000 00000000     ................
8000567c:	7fffffff ffffffff ffffff80 003fffff     ..............?.
8000568c:	ffffffff fffffffe 00000000 00000000     ................
8000569c:	00000000 0007f007 ffffffc0 0001f000     ................
800056ac:	000f0000 00078000 007c0000 0fffffff     ..........|.....
800056bc:	007f8000 00000000 00000000 00000000     ................
800056cc:	7fffffff ffffffff ffffff80 003fffff     ..............?.
800056dc:	ffffffff fffffffe 00000000 00000000     ................
800056ec:	00000000 000ff007 ffffff80 0000f000     ................
800056fc:	000f0000 00078000 00f80000 0fffffff     ................
8000570c:	003f8000 00000000 00000000 00000000     ..?.............
8000571c:	7fffffff ffffffff ffffff80 003fffff     ..............?.
8000572c:	ffffffff fffffffe 00000000 00000000     ................
8000573c:	00000000 000ff007 ffffff80 0000f800     ................
8000574c:	00078000 000f0000 00f80000 0fffffff     ................
8000575c:	003fc000 00000000 00000000 00000000     ..?.............
8000576c:	7fffffff ffffffff ffffff80 003fffff     ..............?.
8000577c:	ffffffff fffffffe 00000000 00000000     ................
8000578c:	00000000 000fe007 ffffff80 00007c00     .............|..
8000579c:	00078000 000f0000 01f00000 0fffffff     ................
800057ac:	003fc000 00000000 00000000 00000000     ..?.............
800057bc:	7fffffff ffffffff ffffff80 003fffff     ..............?.
800057cc:	ffffffff fffffffe 00000000 00000000     ................
800057dc:	00000000 001fe007 ffffff80 00007e00     .............~..
800057ec:	0007c000 000f0000 03f00000 0fffffff     ................
800057fc:	803fc000 00000000 00000000 00000000     ..?.............
8000580c:	7fffffff ffffffff ffffff80 003fffff     ..............?.
8000581c:	ffffffff fffffffe 00000000 00000000     ................
8000582c:	00000000 001fe00f ffffff80 00003e00     .............>..
8000583c:	0003c000 001e0000 03e00000 0fffffff     ................
8000584c:	801fe000 00000000 00000000 00000000     ................
8000585c:	7fffffff ffffffff ffffff80 003fffff     ..............?.
8000586c:	ffffffff fffffffe 00000000 00000000     ................
8000587c:	00000000 001fe00f ffffff80 00001f00     ................
8000588c:	0003c000 001e0000 07c00000 0fffffff     ................
8000589c:	801fe000 00000000 00000000 00000000     ................
800058ac:	7fffffff ffffffff ffffff80 003fffff     ..............?.
800058bc:	ffffffff fffffffe 00000000 00000000     ................
800058cc:	00000000 003fc00f ffffff80 00001f80     ......?.........
800058dc:	0003c000 001e0000 0f800000 0fffffff     ................
800058ec:	800fe000 00000000 00000000 00000000     ................
800058fc:	7fffffff ffffffff ffffff80 003fffff     ..............?.
8000590c:	ffffffff fffffffe 00000000 00000000     ................
8000591c:	00000000 003fc00f ffffff80 00000f80     ......?.........
8000592c:	0003c000 001e0000 1f800000 0fffffff     ................
8000593c:	800ff000 00000000 00000000 00000000     ................
8000594c:	7fffffff ffffffff ffffff80 003fffff     ..............?.
8000595c:	ffffffff fffffffe 00000000 000001ff     ................
8000596c:	c0000000 003fc00f ffffff80 000007c0     ......?.........
8000597c:	0003c000 001e0000 1f000000 0fffffff     ................
8000598c:	800ff000 00000007 ff000000 00000000     ................
8000599c:	7fffffff ffffffff ffffff80 003fffff     ..............?.
800059ac:	ffffffff fffffffe 00000000 00000fff     ................
800059bc:	f8000000 003f800f ffffffc0 000003e0     ......?.........
800059cc:	0003e000 003e0000 3e000000 1fffffff     ......>....>....
800059dc:	8007f000 0000003f ffe00000 00000000     ....?...........
800059ec:	7fffffff ffffffff ffffff80 003fffff     ..............?.
800059fc:	ffffffff fffffffe 00000000 00003fff     .............?..
80005a0c:	fe000000 007f800f ffffffc0 000003f0     ................
80005a1c:	0003e000 003e0000 7c000000 1fffffff     ......>....|....
80005a2c:	8007f000 000000ff fffc0000 00000000     ................
80005a3c:	7fffffff ffffffff ffffff80 003fffff     ..............?.
80005a4c:	ffffffff fffffffe 00000000 0000ffff     ................
80005a5c:	ff800000 007f800f ffffffe0 000001f8     ................
80005a6c:	0003e000 003e0000 fc000000 3fffffff     ......>........?
80005a7c:	8007f800 000001ff ffff0000 00000000     ................
80005a8c:	7fffffff ffffffff ffffff80 003fffff     ..............?.
80005a9c:	ffffffff fffffffe 00000000 0003ffff     ................
80005aac:	ffc00000 007f000f ffffffe0 000000fc     ................
80005abc:	0003e000 003e0001 f8000000 3fffffff     ......>........?
80005acc:	8007f800 000003ff ffff8000 00000000     ................
80005adc:	7fffffff ffffffff ffffff80 003fffff     ..............?.
80005aec:	ffffffff fffffffe 00000000 0007ffff     ................
80005afc:	ffe00000 007f000f fffffff0 0000007e     ............~...
80005b0c:	0003e000 003e0007 f0000000 7fffffff     ......>.........
80005b1c:	8003f800 00000fff ffffe000 00000000     ................
80005b2c:	7fffffff ffffffff ffffff80 003fffff     ..............?.
80005b3c:	ffffffff fffffffe 00000000 001fffff     ................
80005b4c:	fff00000 007f000f fffffff8 0000007f     ................
80005b5c:	8003e000 003f000f e0000000 ffffffff     ......?.........
80005b6c:	8003f800 00001fff fffff000 00000000     ................
80005b7c:	7fffffff ffffffff ffffff80 003fffff     ..............?.
80005b8c:	ffffffff fffffffe 00000000 003fffff     ..............?.
80005b9c:	fff80000 00ff000f fffffffc 000000ff     ................
80005bac:	e007e000 001f003f f0000001 ffffffff     ....?...........
80005bbc:	8003f800 00001fff fffff800 00000000     ................
80005bcc:	7fffffff ffffffff ffffff80 003fffff     ..............?.
80005bdc:	ffffffff fffffffe 00000000 007fff00     ................
80005bec:	3ff80000 00ff0007 fffffffe 000001ff     ...?............
80005bfc:	f80fe000 001f80ff fc000003 ffffffff     ................
80005c0c:	0003f800 00003ffc 00fffc00 00000000     .....?..........
80005c1c:	7fffffff ffffffff ffffff80 003fffff     ..............?.
80005c2c:	ffffffff fffffffe 00000000 00fff800     ................
80005c3c:	1ffc0000 00ff0007 ffffffff 800003ff     ................
80005c4c:	fe0fc000 001f83ff fe00000f ffffffff     ................
80005c5c:	0003f800 00007ff0 003ffe00 00000000     ..........?.....
80005c6c:	7fffffff ffffffff ffffff80 003fffff     ..............?.
80005c7c:	ffffffff fffffffe 00000000 01ffe000     ................
80005c8c:	07fe0000 00ff0007 ffffffff e0000fff     ................
80005c9c:	ffffc000 001fffff ff80003f ffffffff     ........?.......
80005cac:	0003f800 00007fe0 000fff00 00000000     ................
80005cbc:	7fffffff ffffffff ffffff80 003fffff     ..............?.
80005ccc:	ffffffff fffffffe 00000000 03ffc000     ................
80005cdc:	03fe0000 00fe0007 ffffffff f8007fff     ................
80005cec:	ffffc000 001fffff fff001ff ffffffff     ................
80005cfc:	0003f800 0000ffc0 0003ff80 00000000     ................
80005d0c:	7fffffff ffffffff ffffff80 003fffff     ..............?.
80005d1c:	ffffffff fffffffe 00000000 07ff0000     ................
80005d2c:	01ff0000 00fe0003 ffffffff ffffffff     ................
80005d3c:	ffff8010 000fffff ffffffff fffffffe     ................
80005d4c:	0003f800 0000ff80 0001ffc0 00000000     ................
80005d5c:	7fffffff ffffffff ffffff80 003fffff     ..............?.
80005d6c:	ffffffff fffffffe 00000000 0ffe0000     ................
80005d7c:	01ff0000 00fe0003 ffffffff ffffffff     ................
80005d8c:	ffff8010 000fffff ffffffff fffffffe     ................
80005d9c:	0003f800 0001ff00 0000ffe0 00000000     ................
80005dac:	7fffffff ffffffff ffffff80 003fffff     ..............?.
80005dbc:	ffffffff fffffffe 00000000 0ffc0000     ................
80005dcc:	00ff8000 00ff0003 ffffffff ffffffff     ................
80005ddc:	ffff0010 0007ffff ffffffff fffffffe     ................
80005dec:	0007f800 0001fe00 00007ff0 00000000     ................
80005dfc:	7fffffff ffffffff ffffff80 003fffff     ..............?.
80005e0c:	ffffffff fffffffe 00000000 1ff80000     ................
80005e1c:	007f8000 00ff0001 ffffffff ffffffff     ................
80005e2c:	ffff0010 0007ffff ffffffff fffffffc     ................
80005e3c:	0007f800 0003fe00 00003ff0 00000000     .........?......
80005e4c:	7fffffff ffffffff ffffff80 003fffff     ..............?.
80005e5c:	ffffffff fffffffe 00000000 3ff00000     ...............?
80005e6c:	007fc000 00ff0001 ffffffff ffffffff     ................
80005e7c:	fffe0010 1003ffff ffffffff fffffffc     ................
80005e8c:	0007f000 0003fc00 00001ff8 00000000     ................
80005e9c:	7fffffff ffffffff ffffff80 003fffff     ..............?.
80005eac:	ffffffff fffffffe 00000000 3fe00000     ...............?
80005ebc:	003fc000 007f0000 ffffffff ffffffff     ..?.............
80005ecc:	fffc0030 1001ffff ffffffff fffffffc     0...............
80005edc:	000ff000 0003fc00 00000ffc 00000000     ................
80005eec:	7fffffff ffffffff ffffff80 003fffff     ..............?.
80005efc:	ffffffff fffffffe 00000000 7fe00000     ................
80005f0c:	003fc000 007f0000 ffffffff ffffffff     ..?.............
80005f1c:	fff80030 1800ffff ffffffff fffffffc     0...............
80005f2c:	000ff000 0007f800 000007fc 00000000     ................
80005f3c:	7fffffff ffffffff ffffff80 003fffff     ..............?.
80005f4c:	ffffffff fffffffe 00000000 7fc00000     ................
80005f5c:	003fe000 007f8000 ffffffff ffffffff     ..?.............
80005f6c:	fff00030 38007fff ffffffff fffffff2     0......8........
80005f7c:	001fe000 0007f800 000003fe 00000000     ................
80005f8c:	7fffffff ffffffff ffffff80 003fffff     ..............?.
80005f9c:	ffffffff fffffffe 00000000 ff800000     ................
80005fac:	001fe000 007f8001 bfffffff ffffff00     ................
80005fbc:	03e00030 38003e00 07ffffff ffffffe3     0....>.8........
80005fcc:	f01fe000 000ff800 000003fe 00000000     ................
80005fdc:	7fffffff ffffffff ffffff80 003fffff     ..............?.
80005fec:	ffffffff fffffffe 00000000 ff800000     ................
80005ffc:	001fe000 007f8001 1fffffff fffff000     ................
8000600c:	03e00070 38003e00 007fffff ffffffe0     p....>.8........
8000601c:	103fe000 000ff000 000001fe 00000000     ..?.............
8000602c:	7fffffff ffffffff ffffff80 003fffff     ..............?.
8000603c:	ffffffff fffffffe 00000000 ff000000     ................
8000604c:	001ff000 003fc001 1fffffff ffff8000     ......?.........
8000605c:	07c00070 38001f00 000fffff ffffffc0     p......8........
8000606c:	103fc000 000ff000 000001ff 00000000     ..?.............
8000607c:	7fffffff ffffffff ffffff80 003fffff     ..............?.
8000608c:	ffffffff fffffffe 00000001 ff000000     ................
8000609c:	000ff000 003fc006 0fffffff fffe0000     ......?.........
800060ac:	0f800070 38000f80 0003ffff ffffff80     p......8........
800060bc:	107fc000 001ff000 000000ff 00000000     ................
800060cc:	7fffffff ffffffff ffffff80 003fffff     ..............?.
800060dc:	ffffffff fffffffe 00000001 fe000000     ................
800060ec:	000ff800 001fe00c 07ffffff fff00000     ................
800060fc:	1f0000f0 380007c0 00007fff ffffff00     .......8........
8000610c:	0cff8000 001fe000 000000ff 00000000     ................
8000611c:	7fffffff ffffffff ffffff80 003fffff     ..............?.
8000612c:	ffffffff fffffffe 00000001 fe000000     ................
8000613c:	0007f800 001ff008 03ffffff ffc00000     ................
8000614c:	3e0000e0 3c0003e0 00001fff fffffe00     ...>...<........
8000615c:	03ff8000 003fe000 000000ff 00000000     ......?.........
8000616c:	7fffffff ffffffff ffffff80 003fffff     ..............?.
8000617c:	ffffffff fffffffe 00000001 fe000000     ................
8000618c:	0007fc00 000ff004 00ffffff ff000000     ................
8000619c:	f80001e0 3c0001f8 000007ff fffff800     .......<........
800061ac:	03ff0000 007fc000 0000007f 80000000     ................
800061bc:	7fffffff ffffffff ffffff80 003fffff     ..............?.
800061cc:	ffffffff fffffffe 00000001 fe000000     ................
800061dc:	0003fe00 000ff808 007fffff fc000003     ................
800061ec:	f00001e0 3c00007e 000001ff fffff000     ....~..<........
800061fc:	07fe0000 007fc000 0000007f 80000000     ................
8000620c:	7fffffff ffffffff ffffff80 003fffff     ..............?.
8000621c:	ffffffff fffffffe 00000001 fe000000     ................
8000622c:	0003ff00 0007fc08 001fffff f000000f     ................
8000623c:	e00003e0 3e00001f 8000007f ffffc000     .......>........
8000624c:	1ffe0000 01ff8000 0000007f 80000000     ................
8000625c:	7fffffff ffffffff ffffff80 003fffff     ..............?.
8000626c:	ffffffff fffffffe 00000001 fe000000     ................
8000627c:	0001ff80 0007fe10 0007ffff 8000007f     ................
8000628c:	800003e0 3e00000f f000000f ffff0000     .......>........
8000629c:	3ffc0000 03ff8000 0000007f 80000000     ...?............
800062ac:	7fffffff ffffffff ffffff80 003fffff     ..............?.
800062bc:	ffffffff fffffffe 00000001 fe000000     ................
800062cc:	0001ffe0 0003ff10 0000fffc 000003fc     ................
800062dc:	000003e0 3f000001 fe000001 fff80000     .......?........
800062ec:	fff80000 07ff0000 000000ff 00000000     ................
800062fc:	7fffffff ffffffff ffffff80 003fffff     ..............?.
8000630c:	ffffffff fffffffe 00000001 fe000000     ................
8000631c:	0000fff0 0001ffd0 00000300 00001fc0     ................
8000632c:	000007e0 3f000000 1fc00000 06000007     .......?........
8000633c:	fff00000 0ffe0000 000000ff 00000000     ................
8000634c:	7fffffff ffffffff ffffff80 003fffff     ..............?.
8000635c:	ffffffff fffffffe 00000001 ff000080     ................
8000636c:	00007ff8 0000fff0 00000000 0001fc00     ................
8000637c:	000007e0 3f800000 01fc0000 0000003f     .......?....?...
8000638c:	ffc00000 3ffe0000 020000ff 00000000     .......?........
8000639c:	7fffffff ffffffff ffffff80 003fffff     ..............?.
800063ac:	ffffffff fffffffe 00000000 ff000080     ................
800063bc:	00003ffe 00007ffc 00000000 000fc000     .?..............
800063cc:	000007f0 3f800000 001f8000 000001ff     .......?........
800063dc:	ff800000 7ffc0000 030001ff 00000000     ................
800063ec:	7fffffff ffffffff ffffff80 003fffff     ..............?.
800063fc:	ffffffff fffffffe 00000000 ff800180     ................
8000640c:	00001fff 00003fff 80000000 00f00000     .....?..........
8000641c:	00000ff0 7fc00000 00007800 00000fff     .........x......
8000642c:	ff000001 fff00000 010001fe 00000000     ................
8000643c:	7fffffff ffffffff ffffff80 003fffff     ..............?.
8000644c:	ffffffff fffffffe 00000000 ff800380     ................
8000645c:	00000fff 80001fff f0000000 00000000     ................
8000646c:	00000ff8 7fe00000 00000000 00007fff     ................
8000647c:	fc000003 ffe00000 018003fe 00000000     ................
8000648c:	7fffffff ffffffff ffffff80 003fffff     ..............?.
8000649c:	ffffffff fffffffe 00000000 7fc00380     ................
800064ac:	000007ff e0000fff ff000000 00000000     ................
800064bc:	00001ff8 fff00000 00000000 0003ffff     ................
800064cc:	f0000007 ffc00000 01c003fe 00000000     ................
800064dc:	7fffffff ffffffff ffffff80 003fffff     ..............?.
800064ec:	ffffffff fffffffe 00000000 7fe00700     ................
800064fc:	000001ff f00003ff fff80000 00000000     ................
8000650c:	00003ffc fff80000 00000000 000fffff     .?..............
8000651c:	c000001f ff800000 01c007fc 00000000     ................
8000652c:	7fffffff ffffffff ffffff80 003fffff     ..............?.
8000653c:	ffffffff fffffffe 00000000 3fe00f00     ...............?
8000654c:	000000ff fc0000ff ffffc000 00000000     ................
8000655c:	00007ffd fffc0000 00000000 007ffffe     ................
8000656c:	0000007f fe000000 01e00ffc 00000000     ................
8000657c:	7fffffff ffffffff ffffff80 003fffff     ..............?.
8000658c:	ffffffff fffffffe 00000000 3ff00f00     ...............?
8000659c:	0000003f ff00003f fffffe00 00000000     ?...?...........
800065ac:	0000fffd ffff0000 00000000 00fffff0     ................
800065bc:	000001ff fc000000 00f01ff8 00000000     ................
800065cc:	7fffffff ffffffff ffffff80 003fffff     ..............?.
800065dc:	ffffffff fffffffe 00000000 1ff81e00     ................
800065ec:	0000001f ffc0000f ffffffc0 00000000     ................
800065fc:	0001fffd ffff8000 00000000 03ffff80     ................
8000660c:	000007ff f0000000 00f81ff0 00000000     ................
8000661c:	7fffffff ffffffff ffffff80 003fffff     ..............?.
8000662c:	ffffffff fffffffe 00000000 0ff83e00     .............>..
8000663c:	0000000f fff00001 fffffff8 00000000     ................
8000664c:	0003ffff ffffc000 00000000 0ffffc00     ................
8000665c:	00001fff e0000000 007c3ff0 00000000     .........?|.....
8000666c:	7fffffff ffffffff ffffff80 003fffff     ..............?.
8000667c:	ffffffff fffffffe 00000000 07fcfc00     ................
8000668c:	00000003 fffc0000 3ffffffe 00000000     ...........?....
8000669c:	0007ffff fffff000 00000000 1fffe000     ................
800066ac:	00007fff c0000000 007e3fe0 00000000     .........?~.....
800066bc:	7fffffff ffffffff ffffff80 003fffff     ..............?.
800066cc:	ffffffff fffffffe 00000000 07fff800     ................
800066dc:	00000001 ffff0000 03ffffff 80000000     ................
800066ec:	000fffff fffff800 00000000 3fff0000     ...............?
800066fc:	0001ffff 00000000 003fffc0 00000000     ..........?.....
8000670c:	7fffffff ffffffff ffffff80 003fffff     ..............?.
8000671c:	ffffffff fffffffe 00000000 03fff800     ................
8000672c:	00000000 7fffc000 001fffff c0000000     ................
8000673c:	001fffff fffffc00 00000000 7ffc0000     ................
8000674c:	0007fffc 00000000 001fffc0 00000000     ................
8000675c:	7fffffff ffffffff ffffff80 003fffff     ..............?.
8000676c:	ffffffff fffffffe 00000000 0ffff000     ................
8000677c:	00000000 1ffff800 0000ffff e0000000     ................
8000678c:	003fffff fffffc00 00000000 fff00000     ..?.............
8000679c:	001ffff8 00000000 000fffe0 00000000     ................
800067ac:	7fffffff ffffffff ffffff80 003fffff     ..............?.
800067bc:	ffffffff fffffffe 00000000 1fffe000     ................
800067cc:	00000000 07fffe00 000007ff f8000000     ................
800067dc:	007fffff fffffe00 00000001 ffc00000     ................
800067ec:	00ffffe0 00000000 0007fff8 00000000     ................
800067fc:	7fffffff ffffffff ffffff80 003fffff     ..............?.
8000680c:	ffffffff fffffffe 00000000 7fffc000     ................
8000681c:	00000000 03ffff80 000000ff fc000000     ................
8000682c:	007fffff ffffff00 00000001 ff800000     ................
8000683c:	03ffff80 00000000 0003fffe 00000000     ................
8000684c:	7fffffff ffffffff ffffff80 003fffff     ..............?.
8000685c:	ffffffff fffffffe 00000001 ffff0000     ................
8000686c:	00000000 00fffff0 0000001f fe000000     ................
8000687c:	00ffffff ffffff00 00000003 fe000000     ................
8000688c:	0ffffe00 00000000 0001ffff 00000000     ................
8000689c:	7fffffff ffffffff ffffff80 003fffff     ..............?.
800068ac:	ffffffff fffffffe 00000003 fffe0000     ................
800068bc:	00000000 003ffffe 00000007 ff000000     ......?.........
800068cc:	00fffffd ffffff00 00080007 fc000000     ................
800068dc:	7ffff800 00000000 00007fff c0000000     ................
800068ec:	7fffffff ffffffff ffffff80 003fffff     ..............?.
800068fc:	ffffffff fffffffe 0000000f fff80000     ................
8000690c:	00000000 0007ffff 80000003 ff000000     ................
8000691c:	01fffff0 ffffff00 00080007 fc000003     ................
8000692c:	ffffe000 00000000 00003fff e0000000     .........?......
8000693c:	7fffffff ffffffff ffffff80 003fffff     ..............?.
8000694c:	ffffffff fffffffe 0000001f ffe00000     ................
8000695c:	00000000 0001ffff f0000001 ff800000     ................
8000696c:	01ffffe0 7fffff00 0008000f f800000f     ................
8000697c:	ffff8000 00000000 000007ff f0000000     ................
8000698c:	7fffffff ffffffff ffffff80 003fffff     ..............?.
8000699c:	ffffffff fffffffe 0000003f ff000000     ........?.......
800069ac:	00000000 00007fff fe000000 ffc00000     ................
800069bc:	01ffffe0 3fffff00 0008000f f000007f     .......?........
800069cc:	fffc0000 00000000 000001ff f8000000     ................
800069dc:	7fffffff ffffffff ffffff80 003fffff     ..............?.
800069ec:	ffffffff fffffffe 0000007f fc000000     ................
800069fc:	00000000 00000fff ffc00000 7fe00080     ................
80006a0c:	01ffffc0 3ffffe00 000c000f f00003ff     .......?........
80006a1c:	fff00000 00000000 0000007f fc000000     ................
80006a2c:	7fffffff ffffffff ffffff80 003fffff     ..............?.
80006a3c:	ffffffff fffffffe 000000ff f0000000     ................
80006a4c:	00000000 000003ff fff00000 3ff00080     ...............?
80006a5c:	01ffffc0 1ffffc00 000c000f e0001fff     ................
80006a6c:	ffc00000 00000000 0000001f fe000000     ................
80006a7c:	7fffffff ffffffff ffffff80 003fffff     ..............?.
80006a8c:	ffffffff fffffffe 000000ff e0000000     ................
80006a9c:	00000000 000000ff fffe0000 1ff00080     ................
80006aac:	00ffff80 1ffff800 000c000f e000ffff     ................
80006abc:	fe000000 00000000 00000007 ff000000     ................
80006acc:	7fffffff ffffffff ffffff80 003fffff     ..............?.
80006adc:	ffffffff fffffffe 000001ff c0000000     ................
80006aec:	00000000 0000001f ffffc000 0ff00080     ................
80006afc:	007fff00 0ffff000 400c001f e007ffff     ...........@....
80006b0c:	f0000000 00000000 00000003 ff000000     ................
80006b1c:	7fffffff ffffffff ffffff80 003fffff     ..............?.
80006b2c:	ffffffff fffffffe 000003ff 00000000     ................
80006b3c:	00100000 00000003 fffff800 07f00180     ................
80006b4c:	00000f00 07ffc000 400c001f e03fffff     ...........@..?.
80006b5c:	c0000000 00000800 00000001 ff800000     ................
80006b6c:	7fffffff ffffffff ffffff80 003fffff     ..............?.
80006b7c:	ffffffff fffffffe 000003fe 00000000     ................
80006b8c:	00100000 00000000 ffffff00 07f00180     ................
80006b9c:	00000e00 03ff0000 600c001f c1fffffe     ...........`....
80006bac:	00000000 00001800 00000000 ffc00000     ................
80006bbc:	7fffffff ffffffff ffffff80 003fffff     ..............?.
80006bcc:	ffffffff fffffffe 000007fc 00000000     ................
80006bdc:	00100000 00000000 1ffffff0 07f00180     ................
80006bec:	00001c00 01e00000 600c001f cffffff0     ...........`....
80006bfc:	00000000 00001800 00000000 7fc00000     ................
80006c0c:	7fffffff ffffffff ffffff80 003fffff     ..............?.
80006c1c:	ffffffff fffffffe 000007fc 00000000     ................
80006c2c:	00180000 00000000 03fffffe 07f00180     ................
80006c3c:	00003800 00f00000 600c001f ffffffc0     .8.........`....
80006c4c:	00000000 00001800 00000000 3fe00000     ...............?
80006c5c:	7fffffff ffffffff ffffff80 003fffff     ..............?.
80006c6c:	ffffffff fffffffe 00000ff8 00000000     ................
80006c7c:	00180000 00000000 007fffff c7f80180     ................
80006c8c:	0000f000 003e0000 600c001f fffffe00     ......>....`....
80006c9c:	00000000 00003800 00000000 3fe00000     .....8.........?
80006cac:	7fffffff ffffffff ffffff80 003fffff     ..............?.
80006cbc:	ffffffff fffffffe 00000ff0 00000000     ................
80006ccc:	00180000 00000000 000fffff fff801c0     ................
80006cdc:	0003e000 00000000 601c001f fffff000     ...........`....
80006cec:	00000000 00003800 00000000 1fe00000     .....8..........
80006cfc:	7fffffff ffffffff ffffff80 003fffff     ..............?.
80006d0c:	ffffffff fffffffe 00000ff0 00000000     ................
80006d1c:	00180000 00000000 0001ffff fffc01c0     ................
80006d2c:	001f8180 04000000 e01c001f ffff8000     ................
80006d3c:	00000000 00003800 00000000 1ff00000     .....8..........
80006d4c:	7fffffff ffffffff ffffff80 003fffff     ..............?.
80006d5c:	ffffffff fffffffe 00001ff0 00000000     ................
80006d6c:	003c0000 00000000 00003fff fffc01c0     ..<......?......
80006d7c:	00000180 04002000 e01c003f fffc0000     ..... ..?.......
80006d8c:	00000000 00003800 00000000 0ff00000     .....8..........
80006d9c:	7fffffff ffffffff ffffff80 003fffff     ..............?.
80006dac:	ffffffff fffffffe 00001fe0 00000000     ................
80006dbc:	003c0000 00000000 000007ff fffe01e0     ..<.............
80006dcc:	00000180 04002000 e01c003f ffe00000     ..... ..?.......
80006ddc:	00000000 00003800 00000000 0ff00000     .....8..........
80006dec:	7fffffff ffffffff ffffff80 003fffff     ..............?.
80006dfc:	ffffffff fffffffe 00001fe0 00000000     ................
80006e0c:	003c0000 00000000 000000ff ffff00e0     ..<.............
80006e1c:	00000180 04002000 e03c003f fe000000     ..... ..?.<.....
80006e2c:	00000000 00007800 00000000 0ff00000     .....x..........
80006e3c:	7fffffff ffffffff ffffff80 003fffff     ..............?.
80006e4c:	ffffffff fffffffe 00001fe0 00000000     ................
80006e5c:	003c0000 00000000 0000001f ffff00e0     ..<.............
80006e6c:	001001c0 0c006000 e03c003f f0000000     .....`..?.<.....
80006e7c:	00000000 00007800 00000000 07f80000     .....x..........
80006e8c:	7fffffff ffffffff ffffff80 003fffff     ..............?.
80006e9c:	ffffffff fffffffe 00001fe0 00000000     ................
80006eac:	003c0000 00000000 00000003 fffb80f0     ..<.............
80006ebc:	001801c0 0e006001 c038007f c0000000     .....`....8.....
80006ecc:	00000000 00007c00 00000000 07f80000     .....|..........
80006edc:	7fffffff ffffffff ffffff80 003fffff     ..............?.
80006eec:	ffffffff fffffffe 00001fe0 00000000     ................
80006efc:	003c0000 00000000 00000000 3ffb8070     ..<.........p..?
80006f0c:	001800c0 0e006001 c03800ff c0000000     .....`....8.....
80006f1c:	00000000 00007c00 00000000 07f80000     .....|..........
80006f2c:	7fffffff ffffffff ffffff80 003fffff     ..............?.
80006f3c:	ffffffff fffffffe 00001fe0 00000000     ................
80006f4c:	007c0000 00000000 00000000 07f9c070     ..|.........p...
80006f5c:	001800e0 0e006001 c07800ff c0000000     .....`....x.....
80006f6c:	00000000 00007c00 00000000 07f80000     .....|..........
80006f7c:	7fffffff ffffffff ffffff80 003fffff     ..............?.
80006f8c:	ffffffff fffffffe 00001fe0 00000000     ................
80006f9c:	007c0000 00000000 00000000 03f9c078     ..|.........x...
80006fac:	001c00e0 0e006003 c07801ff c0000000     .....`....x.....
80006fbc:	00000000 00003c00 00000000 07f80000     .....<..........
80006fcc:	7fffffff ffffffff ffffff80 003fffff     ..............?.
80006fdc:	ffffffff fffffffe 00001fe0 00000000     ................
80006fec:	007c0000 00000000 00000000 03f8e07c     ..|.........|...
80006ffc:	001c00e0 0e007003 c07801ff c0000000     .....p....x.....
8000700c:	00000000 00003e00 00000000 07f00000     .....>..........
8000701c:	7fffffff ffffffff ffffff80 003fffff     ..............?.
8000702c:	ffffffff fffffffe 00001fe0 00000000     ................
8000703c:	00f80000 00000000 00000000 03fcf06c     ............l...
8000704c:	001c00e0 0e007003 80f003ff c0000000     .....p..........
8000705c:	00000000 00003e00 00000000 0ff00000     .....>..........
8000706c:	7fffffff ffffffff ffffff80 003fffff     ..............?.
8000707c:	ffffffff fffffffe 00001fe0 00000000     ................
8000708c:	00fff000 00000000 00000000 03fc78ee     .............x..
8000709c:	001e01e0 0f007007 80f003bf c0000000     .....p..........
800070ac:	00000000 001fff00 00000000 0ff00000     ................
800070bc:	7fffffff ffffffff ffffff80 003fffff     ..............?.
800070cc:	ffffffff fffffffe 00000ff0 00000000     ................
800070dc:	01fffffe 00000000 00000000 03fc78e7     .............x..
800070ec:	001e01e0 0f007007 81d807bf c0000000     .....p..........
800070fc:	00000000 7fffff80 00000000 0ff00000     ................
8000710c:	7fffffff ffffffff ffffff80 003fffff     ..............?.
8000711c:	ffffffff fffffffe 00000ff0 00000000     ................
8000712c:	03ffffff f8000000 00000000 01fc3ce7     .............<..
8000713c:	803601e0 1f80780f 83980f3f c0000000     ..6..x..?.......
8000714c:	0000003f ffffffc0 00000000 1fe00000     ?...............
8000715c:	7fffffff ffffffff ffffff80 003fffff     ..............?.
8000716c:	ffffffff fffffffe 00000ff8 00000000     ................
8000717c:	07ffffff ffc00000 00000000 01fc1ee3     ................
8000718c:	c03703f0 1f80f80f c3981f3f c0000000     ..7.....?.......
8000719c:	000007ff ffffffe0 00000000 1fe00000     ................
800071ac:	7fffffff ffffffff ffffff80 003fffff     ..............?.
800071bc:	ffffffff fffffffe 000007fc 00000000     ................
800071cc:	1fffffff fffe0000 00000000 01fc1fe3     ................
800071dc:	e07383b0 19c0fc1d c79c1e3f c0000000     ..s.....?.......
800071ec:	0000ffff fffffff0 00000000 3fe00000     ...............?
800071fc:	7fffffff ffffffff ffffff80 003fffff     ..............?.
8000720c:	ffffffff fffffffe 000007fc 00000000     ................
8000721c:	3fffffff fffff000 00000000 01fe0fe1     ...?............
8000722c:	f0638338 19e0ce3d cf0e3c3f c0000000     8.c.=...?<......
8000723c:	000fffff fffffff8 00000000 7fc00000     ................
8000724c:	7fffffff ffffffff ffffff80 003fffff     ..............?.
8000725c:	ffffffff fffffffe 000003fe 00000000     ................
8000726c:	7fffffff ffffff00 00000000 01fe03e0     ................
8000727c:	f8e1c71c 38f1cf38 ff0e7c3f 80000000     ....8..8?|......
8000728c:	01ffffff fffffffc 00000000 ffc00000     ................
8000729c:	7fffffff ffffffff ffffff80 003fffff     ..............?.
800072ac:	ffffffff fffffffe 000003ff 00000000     ................
800072bc:	ffffffff fffffff0 00000000 00fe01e0     ................
800072cc:	7ce1e71e 38798778 fe0ff83f 80000000     ...|x.y8?.......
800072dc:	1fffffff ffffffff 00000001 ff800000     ................
800072ec:	7fffffff ffffffff ffffff80 003fffff     ..............?.
800072fc:	ffffffff fffffffe 000001ff 80000003     ................
8000730c:	ffe001ff ffffffff 00000000 00ff01e0     ................
8000731c:	3fc0ff0f 787b87f8 7c07e03f 80000001     ...?..{x?..|....
8000732c:	ffffffff ff8007ff 80000003 ff800000     ................
8000733c:	7fffffff ffffffff ffffff80 003fffff     ..............?.
8000734c:	ffffffff fffffffe 000001ff e000000f     ................
8000735c:	ffc00001 ffffffff f0000000 00ff00e0     ................
8000736c:	1fc0ff0f 703f83f0 7803c03f 8000001f     ......?p?..x....
8000737c:	ffffffff 000003ff e0000007 ff000000     ................
8000738c:	7fffffff ffffffff ffffff80 003fffff     ..............?.
8000739c:	ffffffff fffffffe 000000ff f000003f     ............?...
800073ac:	ff800000 07ffffff fe000000 007f00e0     ................
800073bc:	0f807e07 f01f81e0 3803803f 800000ff     .~......?..8....
800073cc:	ffffffc0 000001ff f800001f fe000000     ................
800073dc:	7fffffff ffffffff ffffff80 003fffff     ..............?.
800073ec:	ffffffff fffffffe 0000007f fe0000ff     ................
800073fc:	fe000000 001fffff ffe00000 007f80e0     ................
8000740c:	03803e03 f01f01e0 3803807f 80000fff     .>.........8....
8000741c:	fffff800 000000ff ff00007f fc000000     ................
8000742c:	7fffffff ffffffff ffffff80 003fffff     ..............?.
8000743c:	ffffffff fffffffe 0000003f ffc00fff     ........?.......
8000744c:	fc000000 0001ffff fffe0000 007f80e0     ................
8000745c:	03801c01 e00f01e0 3c03807f 80007fff     ...........<....
8000746c:	ffff0000 0000007f fff007ff f8000000     ................
8000747c:	7fffffff ffffffff ffffff80 003fffff     ..............?.
8000748c:	ffffffff fffffffe 0000001f ffffffff     ................
8000749c:	f8000000 00000fff ffffc000 003fc0e0     ..............?.
800074ac:	03801e01 e00700e0 1c03807f 0007ffff     ................
800074bc:	fff00000 0000001f ffffffff f0000000     ................
800074cc:	7fffffff ffffffff ffffff80 003fffff     ..............?.
800074dc:	ffffffff fffffffe 0000000f ffffffff     ................
800074ec:	e0000000 000000ff fffff800 003fc070     ............p.?.
800074fc:	03801e00 e00700e0 1c0780ff 003fffff     ..............?.
8000750c:	fe000000 0000000f ffffffff e0000000     ................
8000751c:	7fffffff ffffffff ffffff80 003fffff     ..............?.
8000752c:	ffffffff fffffffe 00000003 ffffffff     ................
8000753c:	800007ff 8000000f ffffff80 003fe070     ............p.?.
8000754c:	03800e00 e00780e0 1c0700ff 01ffffff     ................
8000755c:	e0000003 ffe00003 ffffffff c0000000     ................
8000756c:	7fffffff ffffffff ffffff80 003fffff     ..............?.
8000757c:	ffffffff fffffffe 00000001 ffffffff     ................
8000758c:	00003fff f0000000 fffffff0 001fe070     .?..........p...
8000759c:	03800e00 e00780e0 1c0701fe 1fffffff     ................
800075ac:	0000001f fffc0000 ffffffff 00000000     ................
800075bc:	7fffffff ffffffff ffffff80 003fffff     ..............?.
800075cc:	ffffffff fffffffe 00000000 7ffffffc     ................
800075dc:	0001ffff fe000000 1ffffffe 001fe030     ............0...
800075ec:	01c00e00 e00380e0 1c0701fe fffffff0     ................
800075fc:	0000007f ffff0000 3ffffffc 00000000     ...........?....
8000760c:	7fffffff ffffffff ffffff80 003fffff     ..............?.
8000761c:	ffffffff fffffffe 00000000 1fffffe0     ................
8000762c:	0007ffff ff000000 01ffffff c00ff030     ............0...
8000763c:	01c00e00 700380e0 1c0703ff ffffff00     .......p........
8000764c:	000001ff ffffe000 0ffffff0 00000000     ................
8000765c:	7fffffff ffffffff ffffff80 003fffff     ..............?.
8000766c:	ffffffff fffffffe 00000000 03ffff00     ................
8000767c:	001fffff ffc00000 001fffff fc0ff038     ............8...
8000768c:	01c00700 700380e0 1c0607ff fffff800     .......p........
8000769c:	000007ff fffff800 01ffff80 00000000     ................
800076ac:	7fffffff ffffffff ffffff80 003fffff     ..............?.
800076bc:	ffffffff fffffffe 00000000 001fe000     ................
800076cc:	007fffff fff00000 0003ffff ff87f818     ................
800076dc:	01c00700 700380e0 1c0e0fff ffff8000     .......p........
800076ec:	00000fff fffffc00 000ff800 00000000     ................
800076fc:	7fffffff ffffffff ffffff80 003fffff     ..............?.
8000770c:	ffffffff fffffffe 00000000 00000000     ................
8000771c:	01ffffff fff80000 00003fff fffff838     .........?..8...
8000772c:	00c00700 700380e0 1c0c1fff fffc0000     .......p........
8000773c:	00003fff ffffff00 00000000 00000000     .?..............
8000774c:	7fffffff ffffffff ffffff80 003fffff     ..............?.
8000775c:	ffffffff fffffffe 00000000 00000000     ................
8000776c:	03ffffc7 fffe0000 000007ff fffffc3c     ............<...
8000777c:	00c00700 700300e0 1c1c3fff ffe00000     .......p.?......
8000778c:	00007fff e3ffff80 00000000 00000000     ................
8000779c:	7fffffff ffffffff ffffff80 003fffff     ..............?.
800077ac:	ffffffff fffffffe 00000000 00000000     ................
800077bc:	07fff800 7fff0000 000000ff fffffefe     ................
800077cc:	00c00300 300300e0 181e7fff fe000000     .......0........
800077dc:	0001fffe 003fffe0 00000000 00000000     ......?.........
800077ec:	7fffffff ffffffff ffffff80 003fffff     ..............?.
800077fc:	ffffffff fffffffe 00000000 00000000     ................
8000780c:	0fffe000 1fffc000 0000001f ffffffff     ................
8000781c:	00600300 300300c0 183fffff f0000000     ..`....0..?.....
8000782c:	0007fff0 0007fff0 00000000 00000000     ................
8000783c:	7fffffff ffffffff ffffff80 003fffff     ..............?.
8000784c:	ffffffff fffffffe 00000000 00000000     ................
8000785c:	1fff0000 07fff000 00000007 ffffffff     ................
8000786c:	80600300 300300e0 387fffff e0000000     ..`....0...8....
8000787c:	001fffe0 0001fff8 00000000 00000000     ................
8000788c:	7fffffff ffffffff ffffff80 003fffff     ..............?.
8000789c:	ffffffff fffffffe 00000000 00000000     ................
800078ac:	3ffc0000 01fffc00 0000007f ffffffff     ...?............
800078bc:	80e00380 300300e0 3cffffff fc000000     .......0...<....
800078cc:	007fff80 00007ffc 00000000 00000000     ................
800078dc:	7fffffff ffffffff ffffff80 003fffff     ..............?.
800078ec:	ffffffff fffffffe 00000000 00000000     ................
800078fc:	7ff80000 00fffe00 000003ff ffffffff     ................
8000790c:	c1f00180 300300f0 7fffffff ff800000     .......0........
8000791c:	00fffe00 00001ffe 00000000 00000000     ................
8000792c:	7fffffff ffffffff ffffff80 003fffff     ..............?.
8000793c:	ffffffff fffffffe 00000000 00000000     ................
8000794c:	ffe00000 003fff80 00001fff fffc3fff     ......?......?..
8000795c:	e3f80380 300301fd ffffffff fff80000     .......0........
8000796c:	01fffc00 00000ffe 00000000 00000000     ................
8000797c:	7fffffff ffffffff ffffff80 003fffff     ..............?.
8000798c:	ffffffff fffffffe 00000000 00000001     ................
8000799c:	ffc00000 001fffc0 0001ffff ffe01fff     ................
800079ac:	fffc0780 300383ff ffffffff ffff0000     .......0........
800079bc:	07fff000 000003ff 00000000 00000000     ................
800079cc:	7fffffff ffffffff ffffff80 003fffff     ..............?.
800079dc:	ffffffff fffffffe 00000000 00000001     ................
800079ec:	ff800000 0007ffe0 000fffff fe0007ff     ................
800079fc:	fffe0fc0 3807c7ff fffff0ff ffffe000     .......8........
80007a0c:	0fffc000 000001ff 80000000 00000000     ................
80007a1c:	7fffffff ffffffff ffffff80 003fffff     ..............?.
80007a2c:	ffffffff fffffffe 00000000 00000003     ................
80007a3c:	ff000000 0001fff8 007fffff f000000f     ................
80007a4c:	ffff3fe0 7c0fffff fffbe01f fffffe00     .?.....|........
80007a5c:	1fff0000 000000ff 80000000 00000000     ................
80007a6c:	7fffffff ffffffff ffffff80 003fffff     ..............?.
80007a7c:	ffffffff fffffffe 00000000 00000003     ................
80007a8c:	fe000000 00007fff 07ffffff 80000007     ................
80007a9c:	fffffff8 ff1fffff fff0c001 ffffffe0     ................
80007aac:	fffe0000 0000007f c0000000 00000000     ................
80007abc:	7fffffff ffffffff ffffff80 003fffff     ..............?.
80007acc:	ffffffff fffffffe 00000000 00000007     ................
80007adc:	fc000000 00003fff fffffff8 00000003     .....?..........
80007aec:	ffffffff ffffffff ffc00000 3fffffff     ...............?
80007afc:	fff80000 0000007f c0000000 00000000     ................
80007b0c:	7fffffff ffffffff ffffff80 003fffff     ..............?.
80007b1c:	ffffffff fffffffe 00000000 00000007     ................
80007b2c:	fc000000 00000fff ffffffc0 00000001     ................
80007b3c:	ffffffff ffffffff ff000000 07ffffff     ................
80007b4c:	fff00000 0000003f c0000000 00000000     ....?...........
80007b5c:	7fffffff ffffffff ffffff80 003fffff     ..............?.
80007b6c:	ffffffff fffffffe 00000000 00000007     ................
80007b7c:	f8000000 000007ff fffffe00 00000000     ................
80007b8c:	7f7fffff ffffffff 9c000000 007fffff     ................
80007b9c:	ffc00000 0000003f e0000000 00000000     ....?...........
80007bac:	7fffffff ffffffff ffffff80 003fffff     ..............?.
80007bbc:	ffffffff fffffffe 00000000 00000007     ................
80007bcc:	f8000000 000003ff ffffe000 00000000     ................
80007bdc:	001fffff fffffff0 00000000 000fffff     ................
80007bec:	ff800000 0000001f e0000000 00000000     ................
80007bfc:	7fffffff ffffffff ffffff80 003fffff     ..............?.
80007c0c:	ffffffff fffffffe 00000000 0000000f     ................
80007c1c:	f0000000 000001ff ffff0000 00000000     ................
80007c2c:	000fffff ffffff80 00000000 0000ffff     ................
80007c3c:	ff000000 0000001f e0000000 00000000     ................
80007c4c:	7fffffff ffffffff ffffff80 003fffff     ..............?.
80007c5c:	ffffffff fffffffe 00000000 0000000f     ................
80007c6c:	f0000000 001fffff fff00000 00000000     ................
80007c7c:	0003f8ff fffffc00 00000000 00001fff     ................
80007c8c:	fffff000 0000001f e0000000 00000000     ................
80007c9c:	7fffffff ffffffff ffffff80 003fffff     ..............?.
80007cac:	ffffffff fffffffe 00000000 0000000f     ................
80007cbc:	f0000000 03ffffff ff800000 00000000     ................
80007ccc:	000001ff ffffc000 00000000 000003ff     ................
80007cdc:	ffffffc0 0000001f e0000000 00000000     ................
80007cec:	7fffffff ffffffff ffffff80 003fffff     ..............?.
80007cfc:	ffffffff fffffffe 00000000 0000000f     ................
80007d0c:	f0000000 003fffff fc000000 00000000     ......?.........
80007d1c:	00000fff fffe0000 00000000 0000007f     ................
80007d2c:	fffffc00 0000000f e0000000 00000000     ................
80007d3c:	7fffffff ffffffff ffffff80 003fffff     ..............?.
80007d4c:	ffffffff fffffffe 00000000 0000000f     ................
80007d5c:	f0000000 0003ffff e0000000 00000000     ................
80007d6c:	0000ffff fffe0000 00000000 0000000f     ................
80007d7c:	ffff8000 0000000f e0000000 00000000     ................
80007d8c:	7fffffff ffffffff ffffff80 003fffff     ..............?.
80007d9c:	ffffffff fffffffe 00000000 0000000f     ................
80007dac:	f0000000 00001ffe 00000000 00000000     ................
80007dbc:	0007ffff ffffc000 00000000 00000000     ................
80007dcc:	fff00000 0000001f e0000000 00000000     ................
80007ddc:	7fffffff ffffffff ffffff80 003fffff     ..............?.
80007dec:	ffffffff fffffffe 00000000 0000000f     ................
80007dfc:	f0000000 00000000 00000000 00000000     ................
80007e0c:	003fffff fffff800 00000000 00000000     ..?.............
80007e1c:	00000000 0000001f e0000000 00000000     ................
80007e2c:	7fffffff ffffffff ffffff80 003fffff     ..............?.
80007e3c:	ffffffff fffffffe 00000000 0000000f     ................
80007e4c:	f0000000 00000000 00000000 00000000     ................
80007e5c:	01ffffff ffffff80 00000000 00000000     ................
80007e6c:	00000000 0000001f e0000000 00000000     ................
80007e7c:	7fffffff ffffffff ffffff80 003fffff     ..............?.
80007e8c:	ffffffff fffffffe 00000000 0000000f     ................
80007e9c:	f8000000 00000000 00000000 00000000     ................
80007eac:	1ffffffc 7ffffff0 00000000 00000000     ................
80007ebc:	00000000 0000001f e0000000 00000000     ................
80007ecc:	7fffffff ffffffff ffffff80 003fffff     ..............?.
80007edc:	ffffffff fffffffe 00000000 00000007     ................
80007eec:	f8000000 00000000 00000000 00000000     ................
80007efc:	ffffffe0 07fffffe 00000000 00000000     ................
80007f0c:	00000000 0000001f e0000000 00000000     ................
80007f1c:	7fffffff ffffffff ffffff80 003fffff     ..............?.
80007f2c:	ffffffff fffffffe 00000000 00000007     ................
80007f3c:	f8000000 00000000 00000000 00000007     ................
80007f4c:	fffffe00 00ffffff c0000000 00000000     ................
80007f5c:	00000000 0000003f c0000000 00000000     ....?...........
80007f6c:	7fffffff ffffffff ffffff80 003fffff     ..............?.
80007f7c:	ffffffff fffffffe 00000000 00000007     ................
80007f8c:	fc000000 00000000 00000000 0000003f     ............?...
80007f9c:	fffff000 001fffff f8000000 00000000     ................
80007fac:	00000000 0000003f c0000000 00000000     ....?...........
80007fbc:	7fffffff ffffffff ffffff80 003fffff     ..............?.
80007fcc:	ffffffff fffffffe 00000000 00000003     ................
80007fdc:	fc000000 00000000 00000000 000001ff     ................
80007fec:	ffff8000 0003ffff ff800000 00000000     ................
80007ffc:	00000000 0000007f c0000000 00000000     ................
8000800c:	7fffffff ffffffff ffffff80 003fffff     ..............?.
8000801c:	ffffffff fffffffe 00000000 00000003     ................
8000802c:	fe000000 00000000 00000000 00000fff     ................
8000803c:	fffc0000 00003fff fff00000 00000000     .....?..........
8000804c:	00000000 0000007f 80000000 00000000     ................
8000805c:	7fffffff ffffffff ffffff80 003fffff     ..............?.
8000806c:	ffffffff fffffffe 00000000 00000003     ................
8000807c:	fe000000 00000000 00000000 00007fff     ................
8000808c:	ffc00000 000007ff fffe0000 00000000     ................
8000809c:	00000000 000000ff 80000000 00000000     ................
800080ac:	7fffffff ffffffff ffffff80 003fffff     ..............?.
800080bc:	ffffffff fffffffe 00000000 00000001     ................
800080cc:	ff000000 00000000 00000000 0003ffff     ................
800080dc:	fe000000 000000ff ffffc000 00000000     ................
800080ec:	00000000 000000ff 80000000 00000000     ................
800080fc:	7fffffff ffffffff ffffff80 003fffff     ..............?.
8000810c:	ffffffff fffffffe 00000000 00000001     ................
8000811c:	ff000000 00000000 00000000 001fffff     ................
8000812c:	f0000000 0000001f fffff800 00000000     ................
8000813c:	00000000 000001ff 00000000 00000000     ................
8000814c:	7fffffff ffffffff ffffff80 003fffff     ..............?.
8000815c:	ffffffff fffffffe 00000000 00000000     ................
8000816c:	ff800000 00000000 00000000 00ffffff     ................
8000817c:	80000000 00000001 ffffff00 00000000     ................
8000818c:	00000000 000003fe 00000000 00000000     ................
8000819c:	7fffffff ffffffff ffffff80 003fffff     ..............?.
800081ac:	ffffffff fffffffe 00000000 00000000     ................
800081bc:	ffc00000 00000000 00000000 07fffffc     ................
	...
800081d4:	3fffffe0 00000000 00000000 000007fe     ...?............
	...
800081ec:	7fffffff ffffffff ffffff80 003fffff     ..............?.
800081fc:	ffffffff fffffffe 00000000 00000000     ................
8000820c:	7fe00000 00000000 00000000 3fffffe0     ...............?
	...
80008224:	07fffffc 00000000 00000000 000007fc     ................
	...
8000823c:	7fffffff ffffffff ffffff80 003fffff     ..............?.
8000824c:	ffffffff fffffffe 00000000 00000000     ................
8000825c:	3ff00000 00000000 00000001 ffffff00     ...?............
	...
80008274:	00ffffff 80000000 00000000 00000ffc     ................
	...
8000828c:	7fffffff ffffffff ffffff80 003fffff     ..............?.
8000829c:	ffffffff fffffffe 00000000 00000000     ................
800082ac:	3ff80000 00000000 0000000f fffff000     ...?............
	...
800082c4:	001fffff f0000000 00000000 00001ff8     ................
	...
800082dc:	7fffffff ffffffff ffffff80 003fffff     ..............?.
800082ec:	ffffffff fffffffe 00000000 00000000     ................
800082fc:	1ffc0000 00000000 0000007f ffff8000     ................
	...
80008314:	0003ffff fc000000 00000000 00003ff0     .............?..
	...
8000832c:	7fffffff ffffffff ffffff80 003fffff     ..............?.
8000833c:	ffffffff fffffffe 00000000 00000000     ................
8000834c:	0ffe0000 00000000 000003ff fffc0000     ................
	...
80008364:	00007fff ff800000 00000000 00007fe0     ................
	...
8000837c:	7fffffff ffffffff ffffff80 003fffff     ..............?.
8000838c:	ffffffff fffffffe 00000000 00000000     ................
8000839c:	07ff0000 00000000 00001fff ffe00000     ................
	...
800083b4:	00000fff fff00000 00000000 0001ffe0     ................
	...
800083cc:	7fffffff ffffffff ffffff80 003fffff     ..............?.
800083dc:	ffffffff fffffffe 00000000 00000000     ................
800083ec:	03ffc000 00000000 00007fff ff000000     ................
	...
80008404:	000001ff fffe0000 00000000 0007ffc0     ................
	...
8000841c:	7fffffff ffffffff ffffff80 003fffff     ..............?.
8000842c:	ffffffff fffffffe 00000000 00000000     ................
8000843c:	01ffff80 00000000 0003ffff f8000000     ................
	...
80008454:	0000003f ffffc000 00000000 03ffff80     ?...............
	...
8000846c:	7fffffff ffffffff ffffff80 003fffff     ..............?.
8000847c:	ffffffff fffffffe 00000000 00000000     ................
8000848c:	01fffff8 00000000 000fffff e0000000     ................
	...
800084a4:	00000007 fffff000 00000000 3fffff00     ...............?
	...
800084bc:	7fffffff ffffffff ffffff80 003fffff     ..............?.
800084cc:	ffffffff fffffffe 00000000 00000000     ................
800084dc:	00fffffe 00000000 003fffff 00000000     ..........?.....
	...
800084f8:	fffffc00 00000000 fffffe00 00000000     ................
80008508:	00000000 7fffffff ffffffff ffffff80     ................
80008518:	003fffff ffffffff fffffffe 00000000     ..?.............
80008528:	00000000 003fffff 00000000 00fffff8     ......?.........
	...
80008548:	1ffffe00 00000001 fffffc00 00000000     ................
80008558:	00000000 7fffffff ffffffff ffffff80     ................
80008568:	003fffff ffffffff fffffffe 00000000     ..?.............
80008578:	00000000 001fffff c0000000 01ffffc0     ................
	...
80008598:	03ffff00 00000003 fffff800 00000000     ................
800085a8:	00000000 7fffffff ffffffff ffffff80     ................
800085b8:	003fffff ffffffff fffffffe 00000000     ..?.............
800085c8:	00000000 0007ffff e0000000 03fffe00     ................
	...
800085e8:	00ffffc0 00000007 ffffe000 00000000     ................
800085f8:	00000000 7fffffff ffffffff ffffff80     ................
80008608:	003fffff ffffffff fffffffe 00000000     ..?.............
80008618:	00000000 0001ffff f0000000 07fff000     ................
	...
80008638:	001fffc0 0000000f ffff8000 00000000     ................
80008648:	00000000 7fffffff ffffffff ffffff80     ................
80008658:	003fffff ffffffff fffffffe 00000000     ..?.............
80008668:	00000000 00003fc3 f0000000 0fff8000     .....?..........
	...
80008688:	0003ffe0 0000001f 83fc0000 00000000     ................
80008698:	00000000 7fffffff ffffffff ffffff80     ................
800086a8:	003fffff ffffffff fffffffe 00000000     ..?.............
800086b8:	00000000 00003fc0 f8000000 1ffe0000     .....?..........
	...
800086d8:	0000fff0 0000003f 03f80000 00000000     ....?...........
800086e8:	00000000 7fffffff ffffffff ffffff80     ................
800086f8:	003fffff ffffffff fffffffe 00000000     ..?.............
80008708:	00000000 00003fc0 7c000000 1ff80000     .....?.....|....
	...
80008728:	00003ff8 0000003c 03fc0000 00000000     .?..<...........
80008738:	00000000 7fffffff ffffffff ffffff80     ................
80008748:	003fffff ffffffff fffffffe 00000000     ..?.............
80008758:	00000000 00007f80 3c000000 3ff00000     ...........<...?
	...
80008778:	00001ff8 00000078 03fc0000 00000000     ....x...........
80008788:	00000000 7fffffff ffffffff ffffff80     ................
80008798:	003fffff ffffffff fffffffe 00000000     ..?.............
800087a8:	00000000 00007f80 1e000000 7fe00000     ................
	...
800087c8:	00000ffc 00000070 03fc0000 00000000     ....p...........
800087d8:	00000000 7fffffff ffffffff ffffff80     ................
800087e8:	003fffff ffffffff fffffffe 00000000     ..?.............
800087f8:	00000000 00007f80 0e000000 7fc00000     ................
	...
80008818:	000007fc 000000f0 03fe0000 00000000     ................
80008828:	00000000 7fffffff ffffffff ffffff80     ................
80008838:	003fffff ffffffff fffffffe 00000000     ..?.............
80008848:	00000000 0000ff80 0e000000 ff800000     ................
	...
80008868:	000003fe 000000e0 01fe0000 00000000     ................
80008878:	00000000 7fffffff ffffffff ffffff80     ................
80008888:	003fffff ffffffff fffffffe 00000000     ..?.............
80008898:	00000000 0000ff00 07000000 ff800000     ................
	...
800088b8:	000001fe 000000c0 01ff0000 00000000     ................
800088c8:	00000000 7fffffff ffffffff ffffff80     ................
800088d8:	003fffff ffffffff fffffffe 00000000     ..?.............
800088e8:	00000000 0001ff00 03000000 ff000000     ................
	...
80008908:	000001ff 000001c0 00ff0000 00000000     ................
80008918:	00000000 7fffffff ffffffff ffffff80     ................
80008928:	003fffff ffffffff fffffffe 00000000     ..?.............
80008938:	00000000 0001fe00 03000001 ff000000     ................
	...
80008958:	000000ff 00000180 00ff8000 00000000     ................
80008968:	00000000 7fffffff ffffffff ffffff80     ................
80008978:	003fffff ffffffff fffffffe 00000000     ..?.............
80008988:	00000000 0003fe00 01800001 fe000000     ................
	...
800089a8:	000000ff 00000100 00ff8000 00000000     ................
800089b8:	00000000 7fffffff ffffffff ffffff80     ................
800089c8:	003fffff ffffffff fffffffe 00000000     ..?.............
800089d8:	00000000 0003fe00 00800001 fe000000     ................
	...
800089f8:	0000007f 80000100 007f8000 00000000     ................
80008a08:	00000000 7fffffff ffffffff ffffff80     ................
80008a18:	003fffff ffffffff fffffffe 00000000     ..?.............
80008a28:	00000000 0003fc00 00800003 fc000000     ................
	...
80008a48:	0000007f 80000200 007fc000 00000000     ................
80008a58:	00000000 7fffffff ffffffff ffffff80     ................
80008a68:	003fffff ffffffff fffffffe 00000000     ..?.............
80008a78:	00000000 0007fc00 00000003 fc000000     ................
	...
80008a98:	0000007f 80000000 003fc000 00000000     ..........?.....
80008aa8:	00000000 7fffffff ffffffff ffffff80     ................
80008ab8:	003fffff ffffffff fffffffe 00000000     ..?.............
80008ac8:	00000000 0007f800 00000003 fc000000     ................
	...
80008ae8:	0000003f c0000000 003fe000 00000000     ?.........?.....
80008af8:	00000000 7fffffff ffffffff ffffff80     ................
80008b08:	003fffff ffffffff fffffffe 00000000     ..?.............
80008b18:	00000000 000ff800 00000007 f8000000     ................
	...
80008b38:	0000003f c0000000 001fe000 00000000     ?...............
80008b48:	00000000 7fffffff ffffffff ffffff80     ................
80008b58:	003fffff ffffffff fffffffe 00000000     ..?.............
80008b68:	00000000 000ff000 00000007 f8000000     ................
	...
80008b88:	0000003f c0000000 001fe000 00000000     ?...............
80008b98:	00000000 7fffffff ffffffff ffffff80     ................
80008ba8:	003fffff ffffffff fffffffe 00000000     ..?.............
80008bb8:	00000000 000ff000 00000007 f8000000     ................
	...
80008bd8:	0000001f e0000000 001fe000 00000000     ................
80008be8:	00000000 7fffffff ffffffff ffffff80     ................
80008bf8:	003fffff ffffffff fffffffe 00000000     ..?.............
80008c08:	00000000 000ff000 0000000f f8000000     ................
	...
80008c28:	0000001f e0000000 000ff000 00000000     ................
80008c38:	00000000 7fffffff ffffffff ffffff80     ................
80008c48:	003fffff ffffffff fffffffe 00000000     ..?.............
80008c58:	00000000 000ff000 0000000f f0000000     ................
	...
80008c78:	0000001f f0000000 000ff000 00000000     ................
80008c88:	00000000 7fffffff ffffffff ffffff80     ................
80008c98:	003fffff ffffffff fffffffe 00000000     ..?.............
80008ca8:	00000000 000fe000 0000001f f0000000     ................
	...
80008cc8:	0000000f f0000000 000ff000 00000000     ................
80008cd8:	00000000 7fffffff ffffffff ffffff80     ................
80008ce8:	003fffff ffffffff fffffffe 00000000     ..?.............
80008cf8:	00000000 000fe000 0000001f e0000000     ................
	...
80008d18:	0000000f f0000000 000ff000 00000000     ................
80008d28:	00000000 7fffffff ffffffff ffffff80     ................
80008d38:	003fffff ffffffff fffffffe 00000000     ..?.............
80008d48:	00000000 000fe000 0000003f e0000000     ........?.......
	...
80008d68:	0000000f f8000000 000ff000 00000000     ................
80008d78:	00000000 7fffffff ffffffff ffffff80     ................
80008d88:	003fffff ffffffff fffffffe 00000000     ..?.............
80008d98:	00000000 000ff000 0000003f e0000000     ........?.......
	...
80008db8:	00000007 f8000000 000ff000 00000000     ................
80008dc8:	00000000 7fffffff ffffffff ffffff80     ................
80008dd8:	003fffff ffffffff fffffffe 00000000     ..?.............
80008de8:	00000000 000ff000 0000007f c0000000     ................
	...
80008e08:	00000007 fc000000 001ff000 00000000     ................
80008e18:	00000000 7fffffff ffffffff ffffff80     ................
80008e28:	003fffff ffffffff fffffffe 00000000     ..?.............
80008e38:	00000000 000ff000 0000007f c0000000     ................
	...
80008e58:	00000003 fe000000 001fe000 00000000     ................
80008e68:	00000000 7fffffff ffffffff ffffff80     ................
80008e78:	003fffff ffffffff fffffffe 00000000     ..?.............
80008e88:	00000000 000ff800 000000ff 80000000     ................
	...
80008ea8:	00000003 fe000000 003fe000 00000000     ..........?.....
80008eb8:	00000000 7fffffff ffffffff ffffff80     ................
80008ec8:	003fffff ffffffff fffffffe 00000000     ..?.............
80008ed8:	00000000 0007fc00 000001ff 80000000     ................
	...
80008ef8:	00000001 ff000000 007fe000 00000000     ................
80008f08:	00000000 7fffffff ffffffff ffffff80     ................
80008f18:	003fffff ffffffff fffffffe 00000000     ..?.............
80008f28:	00000000 0007fe00 000003ff 00000000     ................
	...
80008f48:	00000001 ff800000 007fc000 00000000     ................
80008f58:	00000000 7fffffff ffffffff ffffff80     ................
80008f68:	003fffff ffffffff fffffffe 00000000     ..?.............
80008f78:	00000000 0003fe00 000007fe 00000000     ................
	...
80008f9c:	ffc00000 00ffc000 00000000 00000000     ................
80008fac:	7fffffff ffffffff ffffff80 003fffff     ..............?.
80008fbc:	ffffffff fffffffe 00000000 00000000     ................
80008fcc:	0003ff00 00000ffe 00000000 00000000     ................
	...
80008fec:	7fe00000 01ff8000 00000000 00000000     ................
80008ffc:	7fffffff ffffffff ffffff80 003fffff     ..............?.
8000900c:	ffffffff fffffffe 00000000 00000000     ................
8000901c:	0001ff80 00001ffc 00000000 00000000     ................
	...
8000903c:	7ff80000 03ff0000 00000000 00000000     ................
8000904c:	7fffffff ffffffff ffffff80 003fffff     ..............?.
8000905c:	ffffffff fffffffe 00000000 00000000     ................
8000906c:	0000ffc0 00007ff8 00000000 00000000     ................
	...
8000908c:	3ffe0000 07ff0000 00000000 00000000     ...?............
8000909c:	7fffffff ffffffff ffffff80 003fffff     ..............?.
800090ac:	ffffffff fffffffe 00000000 00000000     ................
800090bc:	00007fe0 0001fff0 00000000 00000000     ................
	...
800090dc:	1fff0000 0ffe0000 00000000 00000000     ................
800090ec:	7fffffff ffffffff ffffff80 003fffff     ..............?.
800090fc:	ffffffff fffffffe 00000000 00000000     ................
8000910c:	00007ff8 0007ffe0 00000000 00000000     ................
	...
8000912c:	0fffc000 1ffc0000 00000000 00000000     ................
8000913c:	7fffffff ffffffff ffffff80 003fffff     ..............?.
8000914c:	ffffffff fffffffe 00000000 00000000     ................
8000915c:	00003ffc 001fffc0 00000000 00000000     .?..............
	...
8000917c:	07fff800 7ff80000 00000000 00000000     ................
8000918c:	7fffffff ffffffff ffffff80 003fffff     ..............?.
8000919c:	ffffffff fffffffe 00000000 00000000     ................
800091ac:	00001fff 81ffff80 00000000 00000000     ................
	...
800091cc:	03ffff03 fff00000 00000000 00000000     ................
800091dc:	7fffffff ffffffff ffffff80 003fffff     ..............?.
800091ec:	ffffffff fffffffe 00000000 00000000     ................
800091fc:	00000fff ffffff00 00000000 00000000     ................
	...
8000921c:	00ffffff ffe00000 00000000 00000000     ................
8000922c:	7fffffff ffffffff ffffff80 003fffff     ..............?.
8000923c:	ffffffff fffffffe 00000000 00000000     ................
8000924c:	000007ff fffffc00 00000000 00000000     ................
	...
8000926c:	007fffff ffc00000 00000000 00000000     ................
8000927c:	7fffffff ffffffff ffffff80 003fffff     ..............?.
8000928c:	ffffffff fffffffe 00000000 00000000     ................
8000929c:	000003ff fffff000 00000000 00000000     ................
	...
800092bc:	001fffff ff800000 00000000 00000000     ................
800092cc:	7fffffff ffffffff ffffff80 003fffff     ..............?.
800092dc:	ffffffff fffffffe 00000000 00000000     ................
800092ec:	000000ff ffffc000 00000000 00000000     ................
	...
8000930c:	0007ffff ff000000 00000000 00000000     ................
8000931c:	7fffffff ffffffff ffffff80 003fffff     ..............?.
8000932c:	ffffffff fffffffe 00000000 00000000     ................
8000933c:	0000007f ffff0000 00000000 00000000     ................
	...
8000935c:	0001ffff fc000000 00000000 00000000     ................
8000936c:	7fffffff ffffffff ffffff80 003fffff     ..............?.
8000937c:	ffffffff fffffffe 00000000 00000000     ................
8000938c:	0000001f fffc0000 00000000 00000000     ................
	...
800093ac:	00007fff f0000000 00000000 00000000     ................
800093bc:	7fffffff ffffffff ffffff80 003fffff     ..............?.
800093cc:	ffffffff fffffffe 00000000 00000000     ................
800093dc:	00000007 ffe00000 00000000 00000000     ................
	...
800093fc:	00000fff c0000000 00000000 00000000     ................
8000940c:	7fffffff ffffffff ffffff80 003fffff     ..............?.
8000941c:	ffffffff fffffffe 00000000 00000000     ................
8000942c:	00000000 3c000000 00000000 00000000     .......<........
	...
8000944c:	00000078 00000000 00000000 00000000     x...............
8000945c:	7fffffff ffffffff ffffff80 003fffff     ..............?.
8000946c:	ffffffff fffffffe 00000000 00000000     ................
	...
800094ac:	7fffffff ffffffff ffffff80 003fffff     ..............?.
800094bc:	ffffffff fffffffe 00000000 00000000     ................
	...
800094fc:	7fffffff ffffffff ffffff80 003fffff     ..............?.
8000950c:	ffffffff fffffffe 00000000 00000000     ................
	...
8000954c:	7fffffff ffffffff ffffff80 003fffff     ..............?.
8000955c:	ffffffff fffffffe 00000000 00000000     ................
	...
8000959c:	7fffffff ffffffff ffffff80 003fffff     ..............?.
800095ac:	ffffffff fffffffe 00000000 00000000     ................
	...
800095ec:	7fffffff ffffffff ffffff80 003fffff     ..............?.
800095fc:	ffffffff fffffffe 00000000 00000000     ................
	...
8000963c:	7fffffff ffffffff ffffff80 003fffff     ..............?.
8000964c:	ffffffff fffffffe 00000000 00000000     ................
	...
8000968c:	7fffffff ffffffff ffffff80 003fffff     ..............?.
8000969c:	ffffffff fffffffe 00000000 00000000     ................
	...
800096dc:	7fffffff ffffffff ffffff80 003fffff     ..............?.
800096ec:	ffffffff fffffffe 00000000 00000000     ................
	...
8000972c:	7fffffff ffffffff ffffff80 003fffff     ..............?.
8000973c:	ffffffff fffffffe 00000000 00000000     ................
	...
8000977c:	7fffffff ffffffff ffffff80 003fffff     ..............?.
8000978c:	ffffffff fffffffe 00000000 00000000     ................
	...
800097cc:	7fffffff ffffffff ffffff80 003fffff     ..............?.
800097dc:	ffffffff fffffffe 00000000 00000000     ................
	...
8000981c:	7fffffff ffffffff ffffff80 003fffff     ..............?.
8000982c:	ffffffff fffffffe 00000000 00000000     ................
	...
8000986c:	7fffffff ffffffff ffffff80 003fffff     ..............?.
8000987c:	ffffffff fffffffe 00000000 00000000     ................
	...
800098bc:	7fffffff ffffffff ffffff80 003fffff     ..............?.
800098cc:	ffffffff fffffffe 00000000 00000000     ................
	...
8000990c:	7fffffff ffffffff ffffff80 003fffff     ..............?.
8000991c:	ffffffff fffffffe 00000000 00000000     ................
	...
8000995c:	7fffffff ffffffff ffffff80 003fffff     ..............?.
8000996c:	ffffffff fffffffe 00000000 00000000     ................
	...
800099ac:	7fffffff ffffffff ffffff80 003fffff     ..............?.
800099bc:	ffffffff fffffffe 00000000 00000000     ................
	...
800099fc:	7fffffff ffffffff ffffff80 003fffff     ..............?.
80009a0c:	ffffffff fffffffe 00000000 00000000     ................
	...
80009a4c:	7fffffff ffffffff ffffff80 003fffff     ..............?.
80009a5c:	ffffffff fffffffe 00000000 00000000     ................
	...
80009a9c:	7fffffff ffffffff ffffff80 003fffff     ..............?.
80009aac:	ffffffff fffffffe 00000000 00000000     ................
	...
80009aec:	7fffffff ffffffff ffffff80 003fffff     ..............?.
80009afc:	ffffffff fffffffe 00000000 00000000     ................
	...
80009b3c:	7fffffff ffffffff ffffff80 003fffff     ..............?.
80009b4c:	ffffffff fffffffe 00000000 00000000     ................
	...
80009b8c:	7fffffff ffffffff ffffff80 003fffff     ..............?.
80009b9c:	ffffffff fffffffe 00000000 00000000     ................
	...
80009bdc:	7fffffff ffffffff ffffff80 003fffff     ..............?.
80009bec:	ffffffff fffffffe 00000000 00000000     ................
	...
80009c2c:	7fffffff ffffffff ffffff80 003fffff     ..............?.
80009c3c:	ffffffff fffffffe 00000000 00000000     ................
	...
80009c7c:	7fffffff ffffffff ffffff80 003fffff     ..............?.
80009c8c:	ffffffff fffffffe 00000000 00000000     ................
	...
80009ccc:	7fffffff ffffffff ffffff80 003fffff     ..............?.
80009cdc:	ffffffff fffffffe 00000000 00000000     ................
	...
80009d1c:	7fffffff ffffffff ffffff80 003fffff     ..............?.
80009d2c:	ffffffff fffffffe 00000000 00000000     ................
	...
80009d6c:	7fffffff ffffffff ffffff80 003fffff     ..............?.
80009d7c:	ffffffff fffffffe 00000000 00000000     ................
	...
80009dbc:	7fffffff ffffffff ffffff80 003fffff     ..............?.
80009dcc:	ffffffff fffffffe 00000000 00000000     ................
	...
80009e0c:	7fffffff ffffffff ffffff80 003fffff     ..............?.
80009e1c:	ffffffff fffffffe 00000000 00000000     ................
	...
80009e5c:	7fffffff ffffffff ffffff80 003fffff     ..............?.
80009e6c:	ffffffff fffffffe 00000000 00000000     ................
	...
80009eac:	7fffffff ffffffff ffffff80 003fffff     ..............?.
80009ebc:	ffffffff fffffffe 00000000 00000000     ................
	...
80009efc:	7fffffff ffffffff ffffff80 003fffff     ..............?.
80009f0c:	ffffffff fffffffe 00000000 00000000     ................
	...
80009f4c:	7fffffff ffffffff ffffff80 003fffff     ..............?.
80009f5c:	ffffffff fffffffe 00000000 00000000     ................
	...
80009f9c:	7fffffff ffffffff ffffff80 003fffff     ..............?.
80009fac:	ffffffff fffffffe 00000000 00000000     ................
	...
80009fec:	7fffffff ffffffff ffffff80 003fffff     ..............?.
80009ffc:	ffffffff fffffffe 00000000 00000000     ................
	...
8000a03c:	7fffffff ffffffff ffffff80 003fffff     ..............?.
8000a04c:	ffffffff fffffffe 00000000 00000000     ................
	...
8000a08c:	7fffffff ffffffff ffffff80 003fffff     ..............?.
8000a09c:	ffffffff fffffffe 00000000 00000000     ................
	...
8000a0dc:	7fffffff ffffffff ffffff80 003fffff     ..............?.
8000a0ec:	ffffffff fffffffe 00000000 00000000     ................
	...
8000a12c:	7fffffff ffffffff ffffff80 003fffff     ..............?.
8000a13c:	ffffffff fffffffe 00000000 00000000     ................
	...
8000a17c:	7fffffff ffffffff ffffff80 003fffff     ..............?.
8000a18c:	ffffffff ffffffff ffffffff ffffffff     ................
8000a19c:	ffffffff ffffffff ffffffff ffffffff     ................
8000a1ac:	ffffffff ffffffff ffffffff ffffffff     ................
8000a1bc:	ffffffff ffffffff ffffffff ffffffff     ................
8000a1cc:	ffffffff ffffffff ffffff80 003fffff     ..............?.
8000a1dc:	ffffffff ffffffff ffffffff ffffffff     ................
8000a1ec:	ffffffff ffffffff ffffffff ffffffff     ................
8000a1fc:	ffffffff ffffffff ffffffff ffffffff     ................
8000a20c:	ffffffff ffffffff ffffffff ffffffff     ................
8000a21c:	ffffffff ffffffff ffffff80 003fffff     ..............?.
8000a22c:	ffffffff ffffffff ffffffff ffffffff     ................
8000a23c:	ffffffff ffffffff ffffffff ffffffff     ................
8000a24c:	ffffffff ffffffff ffffffff ffffffff     ................
8000a25c:	ffffffff ffffffff ffffffff ffffffff     ................
8000a26c:	ffffffff ffffffff ffffff80 003fffff     ..............?.
8000a27c:	ffffffff ffffffff ffffffff ffffffff     ................
8000a28c:	ffffffff ffffffff ffffffff ffffffff     ................
8000a29c:	ffffffff ffffffff ffffffff ffffffff     ................
8000a2ac:	ffffffff ffffffff ffffffff ffffffff     ................
8000a2bc:	ffffffff ffffffff ffffff80 003fffff     ..............?.
8000a2cc:	ffffffff ffffffff ffffffff ffffffff     ................
8000a2dc:	ffffffff ffffffff ffffffff ffffffff     ................
8000a2ec:	ffffffff ffffffff ffffffff ffffffff     ................
8000a2fc:	ffffffff ffffffff ffffffff ffffffff     ................
8000a30c:	ffffffff ffffffff ffffff80 003fffff     ..............?.
8000a31c:	ffffffff ffffffff ffffffff ffffffff     ................
8000a32c:	ffffffff ffffffff ffffffff ffffffff     ................
8000a33c:	ffffffff ffffffff ffffffff ffffffff     ................
8000a34c:	ffffffff ffffffff ffffffff ffffffff     ................
8000a35c:	ffffffff ffffffff ffffff80 00000000     ................
	...

8000a548 <lfsr.3526>:
8000a548:	0000ace1                                ....

8000a54c <irq_received>:
8000a54c:	00000000                                ....
